ARM GAS  C:\Users\dr\AppData\Local\Temp\cchudzOF.s 			page 1


   1              		.syntax unified
   2              		.cpu cortex-m3
   3              		.fpu softvfp
   4              		.eabi_attribute 20, 1
   5              		.eabi_attribute 21, 1
   6              		.eabi_attribute 23, 3
   7              		.eabi_attribute 24, 1
   8              		.eabi_attribute 25, 1
   9              		.eabi_attribute 26, 1
  10              		.eabi_attribute 30, 1
  11              		.eabi_attribute 34, 1
  12              		.eabi_attribute 18, 4
  13              		.thumb
  14              		.syntax unified
  15              		.file	"COMP_FAST.c"
  16              		.text
  17              	.Ltext0:
  18              		.cfi_sections	.debug_frame
  19              		.section	.text.COMP_FAST_trimAdjust,"ax",%progbits
  20              		.align	2
  21              		.thumb
  22              		.thumb_func
  23              		.type	COMP_FAST_trimAdjust, %function
  24              	COMP_FAST_trimAdjust:
  25              	.LFB6:
  26              		.file 1 "Generated_Source\\PSoC5\\COMP_FAST.c"
   1:Generated_Source\PSoC5/COMP_FAST.c **** /*******************************************************************************
   2:Generated_Source\PSoC5/COMP_FAST.c **** * File Name: COMP_FAST.c
   3:Generated_Source\PSoC5/COMP_FAST.c **** * Version 2.0
   4:Generated_Source\PSoC5/COMP_FAST.c **** *
   5:Generated_Source\PSoC5/COMP_FAST.c **** * Description:
   6:Generated_Source\PSoC5/COMP_FAST.c **** *  This file provides the source code to the API for the Comparator component
   7:Generated_Source\PSoC5/COMP_FAST.c **** *
   8:Generated_Source\PSoC5/COMP_FAST.c **** * Note:
   9:Generated_Source\PSoC5/COMP_FAST.c **** *  None
  10:Generated_Source\PSoC5/COMP_FAST.c **** *
  11:Generated_Source\PSoC5/COMP_FAST.c **** ********************************************************************************
  12:Generated_Source\PSoC5/COMP_FAST.c **** * Copyright 2008-2012, Cypress Semiconductor Corporation.  All rights reserved.
  13:Generated_Source\PSoC5/COMP_FAST.c **** * You may use this file only in accordance with the license, terms, conditions, 
  14:Generated_Source\PSoC5/COMP_FAST.c **** * disclaimers, and limitations in the end user license agreement accompanying 
  15:Generated_Source\PSoC5/COMP_FAST.c **** * the software package with which this file was provided.
  16:Generated_Source\PSoC5/COMP_FAST.c **** *******************************************************************************/
  17:Generated_Source\PSoC5/COMP_FAST.c **** 
  18:Generated_Source\PSoC5/COMP_FAST.c **** #include "COMP_FAST.h"
  19:Generated_Source\PSoC5/COMP_FAST.c **** 
  20:Generated_Source\PSoC5/COMP_FAST.c **** uint8 COMP_FAST_initVar = 0u;
  21:Generated_Source\PSoC5/COMP_FAST.c **** 
  22:Generated_Source\PSoC5/COMP_FAST.c **** /* Internal functions definitoin */
  23:Generated_Source\PSoC5/COMP_FAST.c **** static void COMP_FAST_trimAdjust(uint8 nibble) ;
  24:Generated_Source\PSoC5/COMP_FAST.c **** 
  25:Generated_Source\PSoC5/COMP_FAST.c **** /* static COMP_FAST_backupStruct  COMP_FAST_backup; */
  26:Generated_Source\PSoC5/COMP_FAST.c **** #if (CY_PSOC5A)
  27:Generated_Source\PSoC5/COMP_FAST.c ****     static COMP_FAST_LOWPOWER_BACKUP_STRUCT  COMP_FAST_lowPowerBackup;
  28:Generated_Source\PSoC5/COMP_FAST.c **** #endif /* CY_PSOC5A */
  29:Generated_Source\PSoC5/COMP_FAST.c **** 
  30:Generated_Source\PSoC5/COMP_FAST.c **** /* variable to decide whether or not to restore the control register in 
  31:Generated_Source\PSoC5/COMP_FAST.c ****    Enable() API for PSoC5A only */
ARM GAS  C:\Users\dr\AppData\Local\Temp\cchudzOF.s 			page 2


  32:Generated_Source\PSoC5/COMP_FAST.c **** #if (CY_PSOC5A)
  33:Generated_Source\PSoC5/COMP_FAST.c ****     static uint8 COMP_FAST_restoreReg = 0u;
  34:Generated_Source\PSoC5/COMP_FAST.c **** #endif /* CY_PSOC5A */
  35:Generated_Source\PSoC5/COMP_FAST.c **** 
  36:Generated_Source\PSoC5/COMP_FAST.c **** 
  37:Generated_Source\PSoC5/COMP_FAST.c **** /*******************************************************************************
  38:Generated_Source\PSoC5/COMP_FAST.c **** * Function Name: COMP_FAST_Init
  39:Generated_Source\PSoC5/COMP_FAST.c **** ********************************************************************************
  40:Generated_Source\PSoC5/COMP_FAST.c **** *
  41:Generated_Source\PSoC5/COMP_FAST.c **** * Summary:
  42:Generated_Source\PSoC5/COMP_FAST.c **** *  Initialize to the schematic state
  43:Generated_Source\PSoC5/COMP_FAST.c **** * 
  44:Generated_Source\PSoC5/COMP_FAST.c **** * Parameters:
  45:Generated_Source\PSoC5/COMP_FAST.c **** *  void
  46:Generated_Source\PSoC5/COMP_FAST.c **** *
  47:Generated_Source\PSoC5/COMP_FAST.c **** * Return:
  48:Generated_Source\PSoC5/COMP_FAST.c **** *  void
  49:Generated_Source\PSoC5/COMP_FAST.c **** *
  50:Generated_Source\PSoC5/COMP_FAST.c **** *******************************************************************************/
  51:Generated_Source\PSoC5/COMP_FAST.c **** void COMP_FAST_Init(void) 
  52:Generated_Source\PSoC5/COMP_FAST.c **** {
  53:Generated_Source\PSoC5/COMP_FAST.c ****     /* Set default speed/power */
  54:Generated_Source\PSoC5/COMP_FAST.c ****     COMP_FAST_SetSpeed(COMP_FAST_DEFAULT_SPEED);
  55:Generated_Source\PSoC5/COMP_FAST.c **** 
  56:Generated_Source\PSoC5/COMP_FAST.c ****     /* Set default Hysteresis */
  57:Generated_Source\PSoC5/COMP_FAST.c ****     #if ( COMP_FAST_DEFAULT_HYSTERESIS == 0u )
  58:Generated_Source\PSoC5/COMP_FAST.c ****         COMP_FAST_CR |= COMP_FAST_HYST_OFF;
  59:Generated_Source\PSoC5/COMP_FAST.c ****     #else
  60:Generated_Source\PSoC5/COMP_FAST.c ****         COMP_FAST_CR &= (uint8)(~COMP_FAST_HYST_OFF);
  61:Generated_Source\PSoC5/COMP_FAST.c ****     #endif /* COMP_FAST_DEFAULT_HYSTERESIS == 0u */
  62:Generated_Source\PSoC5/COMP_FAST.c ****     /* Power down override feature is not supported for PSoC5A. */
  63:Generated_Source\PSoC5/COMP_FAST.c ****     #if (CY_PSOC3 || CY_PSOC5LP)
  64:Generated_Source\PSoC5/COMP_FAST.c ****         /* Set default Power Down Override */
  65:Generated_Source\PSoC5/COMP_FAST.c ****         #if ( COMP_FAST_DEFAULT_PWRDWN_OVRD == 0u )
  66:Generated_Source\PSoC5/COMP_FAST.c ****             COMP_FAST_CR &= (uint8)(~COMP_FAST_PWRDWN_OVRD);
  67:Generated_Source\PSoC5/COMP_FAST.c ****         #else 
  68:Generated_Source\PSoC5/COMP_FAST.c ****             COMP_FAST_CR |= COMP_FAST_PWRDWN_OVRD;
  69:Generated_Source\PSoC5/COMP_FAST.c ****         #endif /* COMP_FAST_DEFAULT_PWRDWN_OVRD == 0u */
  70:Generated_Source\PSoC5/COMP_FAST.c ****     #endif /* CY_PSOC3 || CY_PSOC5LP */
  71:Generated_Source\PSoC5/COMP_FAST.c ****     
  72:Generated_Source\PSoC5/COMP_FAST.c ****     /* Set mux always on logic */
  73:Generated_Source\PSoC5/COMP_FAST.c ****     COMP_FAST_CR |= COMP_FAST_MX_AO;
  74:Generated_Source\PSoC5/COMP_FAST.c **** 
  75:Generated_Source\PSoC5/COMP_FAST.c ****     /* Set default sync */
  76:Generated_Source\PSoC5/COMP_FAST.c ****     COMP_FAST_CLK &= (uint8)(~COMP_FAST_SYNCCLK_MASK);
  77:Generated_Source\PSoC5/COMP_FAST.c ****     #if ( COMP_FAST_DEFAULT_BYPASS_SYNC == 0u )
  78:Generated_Source\PSoC5/COMP_FAST.c ****         COMP_FAST_CLK |= COMP_FAST_SYNC_CLK_EN;
  79:Generated_Source\PSoC5/COMP_FAST.c ****     #else
  80:Generated_Source\PSoC5/COMP_FAST.c ****         COMP_FAST_CLK |= COMP_FAST_BYPASS_SYNC;
  81:Generated_Source\PSoC5/COMP_FAST.c ****     #endif /* COMP_FAST_DEFAULT_BYPASS_SYNC == 0u */
  82:Generated_Source\PSoC5/COMP_FAST.c **** }
  83:Generated_Source\PSoC5/COMP_FAST.c **** 
  84:Generated_Source\PSoC5/COMP_FAST.c **** 
  85:Generated_Source\PSoC5/COMP_FAST.c **** /*******************************************************************************
  86:Generated_Source\PSoC5/COMP_FAST.c **** * Function Name: COMP_FAST_Enable
  87:Generated_Source\PSoC5/COMP_FAST.c **** ********************************************************************************
  88:Generated_Source\PSoC5/COMP_FAST.c **** *
ARM GAS  C:\Users\dr\AppData\Local\Temp\cchudzOF.s 			page 3


  89:Generated_Source\PSoC5/COMP_FAST.c **** * Summary:
  90:Generated_Source\PSoC5/COMP_FAST.c **** *  Enable the Comparator
  91:Generated_Source\PSoC5/COMP_FAST.c **** * 
  92:Generated_Source\PSoC5/COMP_FAST.c **** * Parameters:
  93:Generated_Source\PSoC5/COMP_FAST.c **** *  void
  94:Generated_Source\PSoC5/COMP_FAST.c **** *
  95:Generated_Source\PSoC5/COMP_FAST.c **** * Return:
  96:Generated_Source\PSoC5/COMP_FAST.c **** *  void
  97:Generated_Source\PSoC5/COMP_FAST.c **** *
  98:Generated_Source\PSoC5/COMP_FAST.c **** *******************************************************************************/
  99:Generated_Source\PSoC5/COMP_FAST.c **** void COMP_FAST_Enable(void) 
 100:Generated_Source\PSoC5/COMP_FAST.c **** {
 101:Generated_Source\PSoC5/COMP_FAST.c ****     COMP_FAST_PWRMGR |= COMP_FAST_ACT_PWR_EN;
 102:Generated_Source\PSoC5/COMP_FAST.c ****     COMP_FAST_STBY_PWRMGR |= COMP_FAST_STBY_PWR_EN;
 103:Generated_Source\PSoC5/COMP_FAST.c ****      
 104:Generated_Source\PSoC5/COMP_FAST.c ****      /* This is to restore the value of register CR which is saved 
 105:Generated_Source\PSoC5/COMP_FAST.c ****     in prior to the modification in stop() API */
 106:Generated_Source\PSoC5/COMP_FAST.c ****     #if (CY_PSOC5A)
 107:Generated_Source\PSoC5/COMP_FAST.c ****         if(COMP_FAST_restoreReg == 1u)
 108:Generated_Source\PSoC5/COMP_FAST.c ****         {
 109:Generated_Source\PSoC5/COMP_FAST.c ****             COMP_FAST_CR = COMP_FAST_lowPowerBackup.compCRReg;
 110:Generated_Source\PSoC5/COMP_FAST.c **** 
 111:Generated_Source\PSoC5/COMP_FAST.c ****             /* Clear the flag */
 112:Generated_Source\PSoC5/COMP_FAST.c ****             COMP_FAST_restoreReg = 0u;
 113:Generated_Source\PSoC5/COMP_FAST.c ****         }
 114:Generated_Source\PSoC5/COMP_FAST.c ****     #endif /* CY_PSOC5A */
 115:Generated_Source\PSoC5/COMP_FAST.c **** }
 116:Generated_Source\PSoC5/COMP_FAST.c **** 
 117:Generated_Source\PSoC5/COMP_FAST.c **** 
 118:Generated_Source\PSoC5/COMP_FAST.c **** /*******************************************************************************
 119:Generated_Source\PSoC5/COMP_FAST.c **** * Function Name: COMP_FAST_Start
 120:Generated_Source\PSoC5/COMP_FAST.c **** ********************************************************************************
 121:Generated_Source\PSoC5/COMP_FAST.c **** *
 122:Generated_Source\PSoC5/COMP_FAST.c **** * Summary:
 123:Generated_Source\PSoC5/COMP_FAST.c **** *  The start function initializes the Analog Comparator with the default values.
 124:Generated_Source\PSoC5/COMP_FAST.c **** *
 125:Generated_Source\PSoC5/COMP_FAST.c **** * Parameters:
 126:Generated_Source\PSoC5/COMP_FAST.c **** *  void
 127:Generated_Source\PSoC5/COMP_FAST.c **** *
 128:Generated_Source\PSoC5/COMP_FAST.c **** * Return:
 129:Generated_Source\PSoC5/COMP_FAST.c **** *  void 
 130:Generated_Source\PSoC5/COMP_FAST.c **** *
 131:Generated_Source\PSoC5/COMP_FAST.c **** * Global variables:
 132:Generated_Source\PSoC5/COMP_FAST.c **** *  COMP_FAST_initVar: Is modified when this function is called for the 
 133:Generated_Source\PSoC5/COMP_FAST.c **** *   first time. Is used to ensure that initialization happens only once.
 134:Generated_Source\PSoC5/COMP_FAST.c **** *  
 135:Generated_Source\PSoC5/COMP_FAST.c **** *******************************************************************************/
 136:Generated_Source\PSoC5/COMP_FAST.c **** void COMP_FAST_Start(void) 
 137:Generated_Source\PSoC5/COMP_FAST.c **** {
 138:Generated_Source\PSoC5/COMP_FAST.c **** 
 139:Generated_Source\PSoC5/COMP_FAST.c ****     if ( COMP_FAST_initVar == 0u )
 140:Generated_Source\PSoC5/COMP_FAST.c ****     {
 141:Generated_Source\PSoC5/COMP_FAST.c ****         COMP_FAST_Init();
 142:Generated_Source\PSoC5/COMP_FAST.c ****         
 143:Generated_Source\PSoC5/COMP_FAST.c ****         COMP_FAST_initVar = 1u;
 144:Generated_Source\PSoC5/COMP_FAST.c ****     }   
 145:Generated_Source\PSoC5/COMP_FAST.c **** 
ARM GAS  C:\Users\dr\AppData\Local\Temp\cchudzOF.s 			page 4


 146:Generated_Source\PSoC5/COMP_FAST.c ****     /* Enable power to comparator */
 147:Generated_Source\PSoC5/COMP_FAST.c ****     COMP_FAST_Enable();    
 148:Generated_Source\PSoC5/COMP_FAST.c **** }
 149:Generated_Source\PSoC5/COMP_FAST.c **** 
 150:Generated_Source\PSoC5/COMP_FAST.c **** 
 151:Generated_Source\PSoC5/COMP_FAST.c **** /*******************************************************************************
 152:Generated_Source\PSoC5/COMP_FAST.c **** * Function Name: COMP_FAST_Stop
 153:Generated_Source\PSoC5/COMP_FAST.c **** ********************************************************************************
 154:Generated_Source\PSoC5/COMP_FAST.c **** *
 155:Generated_Source\PSoC5/COMP_FAST.c **** * Summary:
 156:Generated_Source\PSoC5/COMP_FAST.c **** *  Powers down amplifier to lowest power state.
 157:Generated_Source\PSoC5/COMP_FAST.c **** *
 158:Generated_Source\PSoC5/COMP_FAST.c **** * Parameters:
 159:Generated_Source\PSoC5/COMP_FAST.c **** *  void
 160:Generated_Source\PSoC5/COMP_FAST.c **** *
 161:Generated_Source\PSoC5/COMP_FAST.c **** * Return:
 162:Generated_Source\PSoC5/COMP_FAST.c **** *  void
 163:Generated_Source\PSoC5/COMP_FAST.c **** *
 164:Generated_Source\PSoC5/COMP_FAST.c **** *******************************************************************************/
 165:Generated_Source\PSoC5/COMP_FAST.c **** void COMP_FAST_Stop(void) 
 166:Generated_Source\PSoC5/COMP_FAST.c **** {
 167:Generated_Source\PSoC5/COMP_FAST.c ****     /* Disable power to comparator */
 168:Generated_Source\PSoC5/COMP_FAST.c ****     COMP_FAST_PWRMGR &= (uint8)(~COMP_FAST_ACT_PWR_EN);
 169:Generated_Source\PSoC5/COMP_FAST.c ****     COMP_FAST_STBY_PWRMGR &= (uint8)(~COMP_FAST_STBY_PWR_EN);
 170:Generated_Source\PSoC5/COMP_FAST.c ****     
 171:Generated_Source\PSoC5/COMP_FAST.c ****     #if (CY_PSOC5A)
 172:Generated_Source\PSoC5/COMP_FAST.c ****         /* Enable the variable */
 173:Generated_Source\PSoC5/COMP_FAST.c ****         COMP_FAST_restoreReg = 1u;
 174:Generated_Source\PSoC5/COMP_FAST.c **** 
 175:Generated_Source\PSoC5/COMP_FAST.c ****         /* Save the control register before clearing it */
 176:Generated_Source\PSoC5/COMP_FAST.c ****         COMP_FAST_lowPowerBackup.compCRReg = COMP_FAST_CR;
 177:Generated_Source\PSoC5/COMP_FAST.c ****         COMP_FAST_CR = COMP_FAST_COMP_REG_CLR;
 178:Generated_Source\PSoC5/COMP_FAST.c ****     #endif /* CY_PSOC5A */
 179:Generated_Source\PSoC5/COMP_FAST.c **** }
 180:Generated_Source\PSoC5/COMP_FAST.c **** 
 181:Generated_Source\PSoC5/COMP_FAST.c **** 
 182:Generated_Source\PSoC5/COMP_FAST.c **** /*******************************************************************************
 183:Generated_Source\PSoC5/COMP_FAST.c **** * Function Name: COMP_FAST_SetSpeed
 184:Generated_Source\PSoC5/COMP_FAST.c **** ********************************************************************************
 185:Generated_Source\PSoC5/COMP_FAST.c **** *
 186:Generated_Source\PSoC5/COMP_FAST.c **** * Summary:
 187:Generated_Source\PSoC5/COMP_FAST.c **** *  This function sets the speed of the Analog Comparator. The faster the speed
 188:Generated_Source\PSoC5/COMP_FAST.c **** *  the more power that is used.
 189:Generated_Source\PSoC5/COMP_FAST.c **** *
 190:Generated_Source\PSoC5/COMP_FAST.c **** * Parameters:
 191:Generated_Source\PSoC5/COMP_FAST.c **** *  speed: (uint8) Sets operation mode of Comparator
 192:Generated_Source\PSoC5/COMP_FAST.c **** *
 193:Generated_Source\PSoC5/COMP_FAST.c **** * Return:
 194:Generated_Source\PSoC5/COMP_FAST.c **** *  void
 195:Generated_Source\PSoC5/COMP_FAST.c **** *
 196:Generated_Source\PSoC5/COMP_FAST.c **** *******************************************************************************/
 197:Generated_Source\PSoC5/COMP_FAST.c **** void COMP_FAST_SetSpeed(uint8 speed) 
 198:Generated_Source\PSoC5/COMP_FAST.c **** {
 199:Generated_Source\PSoC5/COMP_FAST.c ****     /* Clear and Set power level */    
 200:Generated_Source\PSoC5/COMP_FAST.c ****     COMP_FAST_CR = (COMP_FAST_CR & (uint8)(~COMP_FAST_PWR_MODE_MASK)) |
 201:Generated_Source\PSoC5/COMP_FAST.c ****                            (speed & COMP_FAST_PWR_MODE_MASK);
 202:Generated_Source\PSoC5/COMP_FAST.c **** 
ARM GAS  C:\Users\dr\AppData\Local\Temp\cchudzOF.s 			page 5


 203:Generated_Source\PSoC5/COMP_FAST.c ****     /* Set trim value for high speed comparator */
 204:Generated_Source\PSoC5/COMP_FAST.c ****     if(speed == COMP_FAST_HIGHSPEED)
 205:Generated_Source\PSoC5/COMP_FAST.c ****     {
 206:Generated_Source\PSoC5/COMP_FAST.c ****         /* PSoC5A */
 207:Generated_Source\PSoC5/COMP_FAST.c ****         #if (CY_PSOC5A)
 208:Generated_Source\PSoC5/COMP_FAST.c ****             COMP_FAST_TR = COMP_FAST_HS_TRIM_TR0;
 209:Generated_Source\PSoC5/COMP_FAST.c ****         #endif /* CY_PSOC5A */
 210:Generated_Source\PSoC5/COMP_FAST.c ****         
 211:Generated_Source\PSoC5/COMP_FAST.c ****         /* PSoC3, PSoC5LP or later */
 212:Generated_Source\PSoC5/COMP_FAST.c ****         #if (CY_PSOC3 || CY_PSOC5LP) 
 213:Generated_Source\PSoC5/COMP_FAST.c ****             COMP_FAST_TR0 = COMP_FAST_HS_TRIM_TR0;
 214:Generated_Source\PSoC5/COMP_FAST.c ****             COMP_FAST_TR1 = COMP_FAST_HS_TRIM_TR1;
 215:Generated_Source\PSoC5/COMP_FAST.c ****         #endif /* CY_PSOC3 || CY_PSOC5LP */
 216:Generated_Source\PSoC5/COMP_FAST.c ****     }
 217:Generated_Source\PSoC5/COMP_FAST.c ****     else
 218:Generated_Source\PSoC5/COMP_FAST.c ****     {
 219:Generated_Source\PSoC5/COMP_FAST.c ****     /* PSoC5A */
 220:Generated_Source\PSoC5/COMP_FAST.c ****         #if (CY_PSOC5A)
 221:Generated_Source\PSoC5/COMP_FAST.c ****             COMP_FAST_TR = COMP_FAST_LS_TRIM_TR0;
 222:Generated_Source\PSoC5/COMP_FAST.c ****         #endif /* CY_PSOC5A */
 223:Generated_Source\PSoC5/COMP_FAST.c ****         
 224:Generated_Source\PSoC5/COMP_FAST.c ****         /* PSoC3, PSoC5LP or later */
 225:Generated_Source\PSoC5/COMP_FAST.c ****         #if (CY_PSOC3 || CY_PSOC5LP) 
 226:Generated_Source\PSoC5/COMP_FAST.c ****             COMP_FAST_TR0 = COMP_FAST_LS_TRIM_TR0;
 227:Generated_Source\PSoC5/COMP_FAST.c ****             COMP_FAST_TR1 = COMP_FAST_LS_TRIM_TR1;
 228:Generated_Source\PSoC5/COMP_FAST.c ****         #endif /* CY_PSOC3 || CY_PSOC5LP */
 229:Generated_Source\PSoC5/COMP_FAST.c ****     }
 230:Generated_Source\PSoC5/COMP_FAST.c **** 
 231:Generated_Source\PSoC5/COMP_FAST.c **** }
 232:Generated_Source\PSoC5/COMP_FAST.c **** 
 233:Generated_Source\PSoC5/COMP_FAST.c **** 
 234:Generated_Source\PSoC5/COMP_FAST.c **** /*******************************************************************************
 235:Generated_Source\PSoC5/COMP_FAST.c **** * Function Name: COMP_FAST_GetCompare
 236:Generated_Source\PSoC5/COMP_FAST.c **** ********************************************************************************
 237:Generated_Source\PSoC5/COMP_FAST.c **** *
 238:Generated_Source\PSoC5/COMP_FAST.c **** * Summary:
 239:Generated_Source\PSoC5/COMP_FAST.c **** *  This function returns the comparator output value.
 240:Generated_Source\PSoC5/COMP_FAST.c **** *  This value is not affected by the Polarity parameter.
 241:Generated_Source\PSoC5/COMP_FAST.c **** *  This valuea lways reflects a noninverted state.
 242:Generated_Source\PSoC5/COMP_FAST.c **** *
 243:Generated_Source\PSoC5/COMP_FAST.c **** * Parameters:
 244:Generated_Source\PSoC5/COMP_FAST.c **** *   None
 245:Generated_Source\PSoC5/COMP_FAST.c **** *
 246:Generated_Source\PSoC5/COMP_FAST.c **** * Return:
 247:Generated_Source\PSoC5/COMP_FAST.c **** *  (uint8)  0     - if Pos_Input less than Neg_input
 248:Generated_Source\PSoC5/COMP_FAST.c **** *           non 0 - if Pos_Input greater than Neg_input.
 249:Generated_Source\PSoC5/COMP_FAST.c **** *
 250:Generated_Source\PSoC5/COMP_FAST.c **** *******************************************************************************/
 251:Generated_Source\PSoC5/COMP_FAST.c **** uint8 COMP_FAST_GetCompare(void) 
 252:Generated_Source\PSoC5/COMP_FAST.c **** {
 253:Generated_Source\PSoC5/COMP_FAST.c ****     return( COMP_FAST_WRK & COMP_FAST_CMP_OUT_MASK);
 254:Generated_Source\PSoC5/COMP_FAST.c **** }
 255:Generated_Source\PSoC5/COMP_FAST.c **** 
 256:Generated_Source\PSoC5/COMP_FAST.c **** 
 257:Generated_Source\PSoC5/COMP_FAST.c **** /*******************************************************************************
 258:Generated_Source\PSoC5/COMP_FAST.c **** * Function Name: COMP_FAST_trimAdjust
 259:Generated_Source\PSoC5/COMP_FAST.c **** ********************************************************************************
ARM GAS  C:\Users\dr\AppData\Local\Temp\cchudzOF.s 			page 6


 260:Generated_Source\PSoC5/COMP_FAST.c **** *
 261:Generated_Source\PSoC5/COMP_FAST.c **** * Summary:
 262:Generated_Source\PSoC5/COMP_FAST.c **** *  This function adjusts the value in the low nibble/high nibble of the Analog 
 263:Generated_Source\PSoC5/COMP_FAST.c **** *  Comparator trim register
 264:Generated_Source\PSoC5/COMP_FAST.c **** *
 265:Generated_Source\PSoC5/COMP_FAST.c **** * Parameters:  
 266:Generated_Source\PSoC5/COMP_FAST.c **** *  nibble:
 267:Generated_Source\PSoC5/COMP_FAST.c **** *      0 -- adjusts the value in the low nibble
 268:Generated_Source\PSoC5/COMP_FAST.c **** *      1 -- adjusts the value in the high nibble
 269:Generated_Source\PSoC5/COMP_FAST.c **** *
 270:Generated_Source\PSoC5/COMP_FAST.c **** * Return:
 271:Generated_Source\PSoC5/COMP_FAST.c **** *  None
 272:Generated_Source\PSoC5/COMP_FAST.c **** *
 273:Generated_Source\PSoC5/COMP_FAST.c **** * Theory: 
 274:Generated_Source\PSoC5/COMP_FAST.c **** *  Function assumes comparator block is setup for trim adjust.
 275:Generated_Source\PSoC5/COMP_FAST.c **** *  Intended to be called from Comp_ZeroCal()
 276:Generated_Source\PSoC5/COMP_FAST.c **** * 
 277:Generated_Source\PSoC5/COMP_FAST.c **** * Side Effects:
 278:Generated_Source\PSoC5/COMP_FAST.c **** *  Routine uses a course 1ms delay following each trim adjustment to allow 
 279:Generated_Source\PSoC5/COMP_FAST.c **** *  the comparator output to respond.
 280:Generated_Source\PSoC5/COMP_FAST.c **** *
 281:Generated_Source\PSoC5/COMP_FAST.c **** *******************************************************************************/
 282:Generated_Source\PSoC5/COMP_FAST.c **** static void COMP_FAST_trimAdjust(uint8 nibble) 
 283:Generated_Source\PSoC5/COMP_FAST.c **** {
  27              		.loc 1 283 0
  28              		.cfi_startproc
  29              		@ args = 0, pretend = 0, frame = 0
  30              		@ frame_needed = 0, uses_anonymous_args = 0
  31              	.LVL0:
  32 0000 F8B5     		push	{r3, r4, r5, r6, r7, lr}
  33              		.cfi_def_cfa_offset 24
  34              		.cfi_offset 3, -24
  35              		.cfi_offset 4, -20
  36              		.cfi_offset 5, -16
  37              		.cfi_offset 6, -12
  38              		.cfi_offset 7, -8
  39              		.cfi_offset 14, -4
 284:Generated_Source\PSoC5/COMP_FAST.c ****     uint8 trimCnt, trimCntMax;
 285:Generated_Source\PSoC5/COMP_FAST.c ****     uint8 cmpState;   
 286:Generated_Source\PSoC5/COMP_FAST.c **** 
 287:Generated_Source\PSoC5/COMP_FAST.c ****     /* get current state of comparator output */
 288:Generated_Source\PSoC5/COMP_FAST.c ****     cmpState = COMP_FAST_WRK & COMP_FAST_CMP_OUT_MASK;
  40              		.loc 1 288 0
  41 0002 1A4B     		ldr	r3, .L12
  42 0004 1D78     		ldrb	r5, [r3]	@ zero_extendqisi2
  43 0006 05F00405 		and	r5, r5, #4
  44 000a EDB2     		uxtb	r5, r5
  45              	.LVL1:
 289:Generated_Source\PSoC5/COMP_FAST.c ****     
 290:Generated_Source\PSoC5/COMP_FAST.c ****     if (nibble == 0u)
  46              		.loc 1 290 0
  47 000c 0646     		mov	r6, r0
  48 000e 30B9     		cbnz	r0, .L2
 291:Generated_Source\PSoC5/COMP_FAST.c ****     {    
 292:Generated_Source\PSoC5/COMP_FAST.c ****         /* if comparator output is high, negative offset adjust is required */
 293:Generated_Source\PSoC5/COMP_FAST.c ****         if ( cmpState != 0u )
  49              		.loc 1 293 0
ARM GAS  C:\Users\dr\AppData\Local\Temp\cchudzOF.s 			page 7


  50 0010 5DB1     		cbz	r5, .L3
 294:Generated_Source\PSoC5/COMP_FAST.c ****         {
 295:Generated_Source\PSoC5/COMP_FAST.c ****             /* PSoC5A */
 296:Generated_Source\PSoC5/COMP_FAST.c ****             #if (CY_PSOC5A)
 297:Generated_Source\PSoC5/COMP_FAST.c ****                 COMP_FAST_TR |= COMP_FAST_CMP_TRIM1_DIR;
 298:Generated_Source\PSoC5/COMP_FAST.c ****             #endif /* CY_PSOC5A */
 299:Generated_Source\PSoC5/COMP_FAST.c ****             
 300:Generated_Source\PSoC5/COMP_FAST.c ****             /* PSoC3, PSoC5LP or later */
 301:Generated_Source\PSoC5/COMP_FAST.c ****             #if (CY_PSOC3 || CY_PSOC5LP)
 302:Generated_Source\PSoC5/COMP_FAST.c ****                 COMP_FAST_TR0 |= COMP_FAST_CMP_TR0_DIR;
  51              		.loc 1 302 0
  52 0012 174A     		ldr	r2, .L12+4
  53 0014 1378     		ldrb	r3, [r2]	@ zero_extendqisi2
  54 0016 43F01003 		orr	r3, r3, #16
  55 001a 1370     		strb	r3, [r2]
  56 001c 05E0     		b	.L3
  57              	.L2:
 303:Generated_Source\PSoC5/COMP_FAST.c ****             #endif /* CY_PSOC3 || CY_PSOC5LP */
 304:Generated_Source\PSoC5/COMP_FAST.c ****         }
 305:Generated_Source\PSoC5/COMP_FAST.c ****     }
 306:Generated_Source\PSoC5/COMP_FAST.c ****     else
 307:Generated_Source\PSoC5/COMP_FAST.c ****     {
 308:Generated_Source\PSoC5/COMP_FAST.c ****         /* if comparator output is low, positive offset adjust is required */
 309:Generated_Source\PSoC5/COMP_FAST.c ****         if ( cmpState == 0u )
  58              		.loc 1 309 0
  59 001e 25B9     		cbnz	r5, .L3
 310:Generated_Source\PSoC5/COMP_FAST.c ****         {
 311:Generated_Source\PSoC5/COMP_FAST.c ****             /* PSoC5A */
 312:Generated_Source\PSoC5/COMP_FAST.c ****             #if (CY_PSOC5A)
 313:Generated_Source\PSoC5/COMP_FAST.c ****                 COMP_FAST_TR |= COMP_FAST_CMP_TRIM2_DIR; 
 314:Generated_Source\PSoC5/COMP_FAST.c ****             #endif /* CY_PSOC5A */
 315:Generated_Source\PSoC5/COMP_FAST.c ****             
 316:Generated_Source\PSoC5/COMP_FAST.c ****             /* PSoC3, PSoC5LP or later */
 317:Generated_Source\PSoC5/COMP_FAST.c ****             #if (CY_PSOC3 || CY_PSOC5LP)
 318:Generated_Source\PSoC5/COMP_FAST.c ****                 COMP_FAST_TR1 |= COMP_FAST_CMP_TR1_DIR;
  60              		.loc 1 318 0
  61 0020 144A     		ldr	r2, .L12+8
  62 0022 1378     		ldrb	r3, [r2]	@ zero_extendqisi2
  63 0024 43F01003 		orr	r3, r3, #16
  64 0028 1370     		strb	r3, [r2]
  65              	.L3:
 319:Generated_Source\PSoC5/COMP_FAST.c ****             #endif /* CY_PSOC3 || CY_PSOC5LP */
 320:Generated_Source\PSoC5/COMP_FAST.c ****         }
 321:Generated_Source\PSoC5/COMP_FAST.c ****     }
 322:Generated_Source\PSoC5/COMP_FAST.c **** 
 323:Generated_Source\PSoC5/COMP_FAST.c ****     /* Increment trim value until compare output changes state */
 324:Generated_Source\PSoC5/COMP_FAST.c **** 	
 325:Generated_Source\PSoC5/COMP_FAST.c ****     /* PSoC5A */
 326:Generated_Source\PSoC5/COMP_FAST.c **** 	#if (CY_PSOC5A)
 327:Generated_Source\PSoC5/COMP_FAST.c **** 	    trimCntMax = 7u;
 328:Generated_Source\PSoC5/COMP_FAST.c ****     #endif
 329:Generated_Source\PSoC5/COMP_FAST.c **** 	
 330:Generated_Source\PSoC5/COMP_FAST.c **** 	/* PSoC3, PSoC5LP or later */
 331:Generated_Source\PSoC5/COMP_FAST.c **** 	#if (CY_PSOC3 || CY_PSOC5LP)
 332:Generated_Source\PSoC5/COMP_FAST.c ****     	if(nibble == 0u)
  66              		.loc 1 332 0
  67 002a 0EB9     		cbnz	r6, .L10
ARM GAS  C:\Users\dr\AppData\Local\Temp\cchudzOF.s 			page 8


 333:Generated_Source\PSoC5/COMP_FAST.c ****     	{
 334:Generated_Source\PSoC5/COMP_FAST.c ****     		trimCntMax = 15u;
  68              		.loc 1 334 0
  69 002c 0F27     		movs	r7, #15
  70 002e 00E0     		b	.L4
  71              	.L10:
 335:Generated_Source\PSoC5/COMP_FAST.c ****     	}
 336:Generated_Source\PSoC5/COMP_FAST.c ****     	else
 337:Generated_Source\PSoC5/COMP_FAST.c ****     	{
 338:Generated_Source\PSoC5/COMP_FAST.c ****     		trimCntMax = 7u;
  72              		.loc 1 338 0
  73 0030 0727     		movs	r7, #7
  74              	.L4:
  75              	.LVL2:
 339:Generated_Source\PSoC5/COMP_FAST.c ****     	}
 340:Generated_Source\PSoC5/COMP_FAST.c **** 	#endif
 341:Generated_Source\PSoC5/COMP_FAST.c **** 	
 342:Generated_Source\PSoC5/COMP_FAST.c ****     for ( trimCnt = 0u; trimCnt < trimCntMax; trimCnt++ )
  76              		.loc 1 342 0
  77 0032 0024     		movs	r4, #0
  78 0034 17E0     		b	.L5
  79              	.LVL3:
  80              	.L9:
 343:Generated_Source\PSoC5/COMP_FAST.c **** 	{
 344:Generated_Source\PSoC5/COMP_FAST.c ****         if (nibble == 0u)
  81              		.loc 1 344 0
  82 0036 2EB9     		cbnz	r6, .L6
 345:Generated_Source\PSoC5/COMP_FAST.c ****         {
 346:Generated_Source\PSoC5/COMP_FAST.c ****             /* PSoC5A */
 347:Generated_Source\PSoC5/COMP_FAST.c ****             #if (CY_PSOC5A)
 348:Generated_Source\PSoC5/COMP_FAST.c ****                 COMP_FAST_TR += 1u;
 349:Generated_Source\PSoC5/COMP_FAST.c ****             #endif /* CY_PSOC5A */
 350:Generated_Source\PSoC5/COMP_FAST.c ****             
 351:Generated_Source\PSoC5/COMP_FAST.c ****             /* PSoC3, PSoC5LP or later */
 352:Generated_Source\PSoC5/COMP_FAST.c ****             #if (CY_PSOC3 || CY_PSOC5LP)
 353:Generated_Source\PSoC5/COMP_FAST.c ****                 COMP_FAST_TR0 += 1u;
  83              		.loc 1 353 0
  84 0038 0D4A     		ldr	r2, .L12+4
  85 003a 1378     		ldrb	r3, [r2]	@ zero_extendqisi2
  86 003c 0133     		adds	r3, r3, #1
  87 003e DBB2     		uxtb	r3, r3
  88 0040 1370     		strb	r3, [r2]
  89 0042 04E0     		b	.L7
  90              	.L6:
 354:Generated_Source\PSoC5/COMP_FAST.c ****             #endif /* CY_PSOC3 || CY_PSOC5LP */
 355:Generated_Source\PSoC5/COMP_FAST.c ****         }
 356:Generated_Source\PSoC5/COMP_FAST.c ****         else
 357:Generated_Source\PSoC5/COMP_FAST.c ****         {
 358:Generated_Source\PSoC5/COMP_FAST.c ****             /* PSoC5A */
 359:Generated_Source\PSoC5/COMP_FAST.c ****             #if (CY_PSOC5A)
 360:Generated_Source\PSoC5/COMP_FAST.c ****                 COMP_FAST_TR += 0x10u;
 361:Generated_Source\PSoC5/COMP_FAST.c ****             #endif /* CY_PSOC5A */
 362:Generated_Source\PSoC5/COMP_FAST.c ****             
 363:Generated_Source\PSoC5/COMP_FAST.c ****             /* PSoC3, PSoC5LP or later */
 364:Generated_Source\PSoC5/COMP_FAST.c ****             #if (CY_PSOC3 || CY_PSOC5LP)
 365:Generated_Source\PSoC5/COMP_FAST.c ****                 COMP_FAST_TR1 += 1u;
  91              		.loc 1 365 0
ARM GAS  C:\Users\dr\AppData\Local\Temp\cchudzOF.s 			page 9


  92 0044 0B4A     		ldr	r2, .L12+8
  93 0046 1378     		ldrb	r3, [r2]	@ zero_extendqisi2
  94 0048 0133     		adds	r3, r3, #1
  95 004a DBB2     		uxtb	r3, r3
  96 004c 1370     		strb	r3, [r2]
  97              	.L7:
 366:Generated_Source\PSoC5/COMP_FAST.c ****             #endif /* CY_PSOC3 || CY_PSOC5LP */
 367:Generated_Source\PSoC5/COMP_FAST.c ****         }
 368:Generated_Source\PSoC5/COMP_FAST.c ****         
 369:Generated_Source\PSoC5/COMP_FAST.c ****         CyDelayUs(10u);
  98              		.loc 1 369 0
  99 004e 0A20     		movs	r0, #10
 100 0050 FFF7FEFF 		bl	CyDelayUs
 101              	.LVL4:
 370:Generated_Source\PSoC5/COMP_FAST.c ****         
 371:Generated_Source\PSoC5/COMP_FAST.c ****         /* Check for change in comparator output */
 372:Generated_Source\PSoC5/COMP_FAST.c ****         if ((COMP_FAST_WRK & COMP_FAST_CMP_OUT_MASK) != cmpState)
 102              		.loc 1 372 0
 103 0054 054B     		ldr	r3, .L12
 104 0056 1B78     		ldrb	r3, [r3]	@ zero_extendqisi2
 105 0058 03F00403 		and	r3, r3, #4
 106 005c DBB2     		uxtb	r3, r3
 107 005e AB42     		cmp	r3, r5
 108 0060 03D1     		bne	.L1
 342:Generated_Source\PSoC5/COMP_FAST.c **** 	{
 109              		.loc 1 342 0 discriminator 2
 110 0062 0134     		adds	r4, r4, #1
 111              	.LVL5:
 112 0064 E4B2     		uxtb	r4, r4
 113              	.LVL6:
 114              	.L5:
 342:Generated_Source\PSoC5/COMP_FAST.c **** 	{
 115              		.loc 1 342 0 is_stmt 0 discriminator 1
 116 0066 BC42     		cmp	r4, r7
 117 0068 E5D3     		bcc	.L9
 118              	.L1:
 119 006a F8BD     		pop	{r3, r4, r5, r6, r7, pc}
 120              	.LVL7:
 121              	.L13:
 122              		.align	2
 123              	.L12:
 124 006c 965B0040 		.word	1073765270
 125 0070 34460040 		.word	1073759796
 126 0074 35460040 		.word	1073759797
 127              		.cfi_endproc
 128              	.LFE6:
 129              		.size	COMP_FAST_trimAdjust, .-COMP_FAST_trimAdjust
 130              		.section	.text.COMP_FAST_Enable,"ax",%progbits
 131              		.align	2
 132              		.global	COMP_FAST_Enable
 133              		.thumb
 134              		.thumb_func
 135              		.type	COMP_FAST_Enable, %function
 136              	COMP_FAST_Enable:
 137              	.LFB1:
 100:Generated_Source\PSoC5/COMP_FAST.c ****     COMP_FAST_PWRMGR |= COMP_FAST_ACT_PWR_EN;
 138              		.loc 1 100 0 is_stmt 1
ARM GAS  C:\Users\dr\AppData\Local\Temp\cchudzOF.s 			page 10


 139              		.cfi_startproc
 140              		@ args = 0, pretend = 0, frame = 0
 141              		@ frame_needed = 0, uses_anonymous_args = 0
 142              		@ link register save eliminated.
 101:Generated_Source\PSoC5/COMP_FAST.c ****     COMP_FAST_STBY_PWRMGR |= COMP_FAST_STBY_PWR_EN;
 143              		.loc 1 101 0
 144 0000 054A     		ldr	r2, .L15
 145 0002 1378     		ldrb	r3, [r2]	@ zero_extendqisi2
 146 0004 43F00403 		orr	r3, r3, #4
 147 0008 1370     		strb	r3, [r2]
 102:Generated_Source\PSoC5/COMP_FAST.c ****      
 148              		.loc 1 102 0
 149 000a 1032     		adds	r2, r2, #16
 150 000c 1378     		ldrb	r3, [r2]	@ zero_extendqisi2
 151 000e 43F00403 		orr	r3, r3, #4
 152 0012 1370     		strb	r3, [r2]
 153 0014 7047     		bx	lr
 154              	.L16:
 155 0016 00BF     		.align	2
 156              	.L15:
 157 0018 A7430040 		.word	1073759143
 158              		.cfi_endproc
 159              	.LFE1:
 160              		.size	COMP_FAST_Enable, .-COMP_FAST_Enable
 161              		.section	.text.COMP_FAST_Stop,"ax",%progbits
 162              		.align	2
 163              		.global	COMP_FAST_Stop
 164              		.thumb
 165              		.thumb_func
 166              		.type	COMP_FAST_Stop, %function
 167              	COMP_FAST_Stop:
 168              	.LFB3:
 166:Generated_Source\PSoC5/COMP_FAST.c ****     /* Disable power to comparator */
 169              		.loc 1 166 0
 170              		.cfi_startproc
 171              		@ args = 0, pretend = 0, frame = 0
 172              		@ frame_needed = 0, uses_anonymous_args = 0
 173              		@ link register save eliminated.
 168:Generated_Source\PSoC5/COMP_FAST.c ****     COMP_FAST_STBY_PWRMGR &= (uint8)(~COMP_FAST_STBY_PWR_EN);
 174              		.loc 1 168 0
 175 0000 054A     		ldr	r2, .L18
 176 0002 1378     		ldrb	r3, [r2]	@ zero_extendqisi2
 177 0004 03F0FB03 		and	r3, r3, #251
 178 0008 1370     		strb	r3, [r2]
 169:Generated_Source\PSoC5/COMP_FAST.c ****     
 179              		.loc 1 169 0
 180 000a 1032     		adds	r2, r2, #16
 181 000c 1378     		ldrb	r3, [r2]	@ zero_extendqisi2
 182 000e 03F0FB03 		and	r3, r3, #251
 183 0012 1370     		strb	r3, [r2]
 184 0014 7047     		bx	lr
 185              	.L19:
 186 0016 00BF     		.align	2
 187              	.L18:
 188 0018 A7430040 		.word	1073759143
 189              		.cfi_endproc
 190              	.LFE3:
ARM GAS  C:\Users\dr\AppData\Local\Temp\cchudzOF.s 			page 11


 191              		.size	COMP_FAST_Stop, .-COMP_FAST_Stop
 192              		.section	.text.COMP_FAST_SetSpeed,"ax",%progbits
 193              		.align	2
 194              		.global	COMP_FAST_SetSpeed
 195              		.thumb
 196              		.thumb_func
 197              		.type	COMP_FAST_SetSpeed, %function
 198              	COMP_FAST_SetSpeed:
 199              	.LFB4:
 198:Generated_Source\PSoC5/COMP_FAST.c ****     /* Clear and Set power level */    
 200              		.loc 1 198 0
 201              		.cfi_startproc
 202              		@ args = 0, pretend = 0, frame = 0
 203              		@ frame_needed = 0, uses_anonymous_args = 0
 204              		@ link register save eliminated.
 205              	.LVL8:
 200:Generated_Source\PSoC5/COMP_FAST.c ****                            (speed & COMP_FAST_PWR_MODE_MASK);
 206              		.loc 1 200 0
 207 0000 0F49     		ldr	r1, .L23
 208 0002 0B78     		ldrb	r3, [r1]	@ zero_extendqisi2
 209 0004 03F0FC02 		and	r2, r3, #252
 210 0008 00F00303 		and	r3, r0, #3
 211 000c 1343     		orrs	r3, r3, r2
 212 000e 0B70     		strb	r3, [r1]
 204:Generated_Source\PSoC5/COMP_FAST.c ****     {
 213              		.loc 1 204 0
 214 0010 0128     		cmp	r0, #1
 215 0012 0AD1     		bne	.L21
 213:Generated_Source\PSoC5/COMP_FAST.c ****             COMP_FAST_TR1 = COMP_FAST_HS_TRIM_TR1;
 216              		.loc 1 213 0
 217 0014 0B4B     		ldr	r3, .L23+4
 218 0016 1B78     		ldrb	r3, [r3]	@ zero_extendqisi2
 219 0018 DBB2     		uxtb	r3, r3
 220 001a 0B4A     		ldr	r2, .L23+8
 221 001c 1370     		strb	r3, [r2]
 214:Generated_Source\PSoC5/COMP_FAST.c ****         #endif /* CY_PSOC3 || CY_PSOC5LP */
 222              		.loc 1 214 0
 223 001e 0B4B     		ldr	r3, .L23+12
 224 0020 1B78     		ldrb	r3, [r3]	@ zero_extendqisi2
 225 0022 DBB2     		uxtb	r3, r3
 226 0024 0132     		adds	r2, r2, #1
 227 0026 1370     		strb	r3, [r2]
 228 0028 7047     		bx	lr
 229              	.L21:
 226:Generated_Source\PSoC5/COMP_FAST.c ****             COMP_FAST_TR1 = COMP_FAST_LS_TRIM_TR1;
 230              		.loc 1 226 0
 231 002a 094B     		ldr	r3, .L23+16
 232 002c 1B78     		ldrb	r3, [r3]	@ zero_extendqisi2
 233 002e DBB2     		uxtb	r3, r3
 234 0030 054A     		ldr	r2, .L23+8
 235 0032 1370     		strb	r3, [r2]
 227:Generated_Source\PSoC5/COMP_FAST.c ****         #endif /* CY_PSOC3 || CY_PSOC5LP */
 236              		.loc 1 227 0
 237 0034 074B     		ldr	r3, .L23+20
 238 0036 1B78     		ldrb	r3, [r3]	@ zero_extendqisi2
 239 0038 DBB2     		uxtb	r3, r3
 240 003a 0132     		adds	r2, r2, #1
ARM GAS  C:\Users\dr\AppData\Local\Temp\cchudzOF.s 			page 12


 241 003c 1370     		strb	r3, [r2]
 242 003e 7047     		bx	lr
 243              	.L24:
 244              		.align	2
 245              	.L23:
 246 0040 42580040 		.word	1073764418
 247 0044 12010049 		.word	1224737042
 248 0048 34460040 		.word	1073759796
 249 004c 16010049 		.word	1224737046
 250 0050 B1010049 		.word	1224737201
 251 0054 B9010049 		.word	1224737209
 252              		.cfi_endproc
 253              	.LFE4:
 254              		.size	COMP_FAST_SetSpeed, .-COMP_FAST_SetSpeed
 255              		.section	.text.COMP_FAST_Init,"ax",%progbits
 256              		.align	2
 257              		.global	COMP_FAST_Init
 258              		.thumb
 259              		.thumb_func
 260              		.type	COMP_FAST_Init, %function
 261              	COMP_FAST_Init:
 262              	.LFB0:
  52:Generated_Source\PSoC5/COMP_FAST.c ****     /* Set default speed/power */
 263              		.loc 1 52 0
 264              		.cfi_startproc
 265              		@ args = 0, pretend = 0, frame = 0
 266              		@ frame_needed = 0, uses_anonymous_args = 0
 267 0000 08B5     		push	{r3, lr}
 268              		.cfi_def_cfa_offset 8
 269              		.cfi_offset 3, -8
 270              		.cfi_offset 14, -4
  54:Generated_Source\PSoC5/COMP_FAST.c **** 
 271              		.loc 1 54 0
 272 0002 0120     		movs	r0, #1
 273 0004 FFF7FEFF 		bl	COMP_FAST_SetSpeed
 274              	.LVL9:
  58:Generated_Source\PSoC5/COMP_FAST.c ****     #else
 275              		.loc 1 58 0
 276 0008 0B4B     		ldr	r3, .L27
 277 000a 1A78     		ldrb	r2, [r3]	@ zero_extendqisi2
 278 000c 42F02002 		orr	r2, r2, #32
 279 0010 1A70     		strb	r2, [r3]
  66:Generated_Source\PSoC5/COMP_FAST.c ****         #else 
 280              		.loc 1 66 0
 281 0012 1A78     		ldrb	r2, [r3]	@ zero_extendqisi2
 282 0014 02F0FB02 		and	r2, r2, #251
 283 0018 1A70     		strb	r2, [r3]
  73:Generated_Source\PSoC5/COMP_FAST.c **** 
 284              		.loc 1 73 0
 285 001a 1A78     		ldrb	r2, [r3]	@ zero_extendqisi2
 286 001c 42F00802 		orr	r2, r2, #8
 287 0020 1A70     		strb	r2, [r3]
  76:Generated_Source\PSoC5/COMP_FAST.c ****     #if ( COMP_FAST_DEFAULT_BYPASS_SYNC == 0u )
 288              		.loc 1 76 0
 289 0022 03F29523 		addw	r3, r3, #661
 290 0026 1A78     		ldrb	r2, [r3]	@ zero_extendqisi2
 291 0028 02F0E702 		and	r2, r2, #231
ARM GAS  C:\Users\dr\AppData\Local\Temp\cchudzOF.s 			page 13


 292 002c 1A70     		strb	r2, [r3]
  80:Generated_Source\PSoC5/COMP_FAST.c ****     #endif /* COMP_FAST_DEFAULT_BYPASS_SYNC == 0u */
 293              		.loc 1 80 0
 294 002e 1A78     		ldrb	r2, [r3]	@ zero_extendqisi2
 295 0030 42F01002 		orr	r2, r2, #16
 296 0034 1A70     		strb	r2, [r3]
 297 0036 08BD     		pop	{r3, pc}
 298              	.L28:
 299              		.align	2
 300              	.L27:
 301 0038 42580040 		.word	1073764418
 302              		.cfi_endproc
 303              	.LFE0:
 304              		.size	COMP_FAST_Init, .-COMP_FAST_Init
 305              		.section	.text.COMP_FAST_Start,"ax",%progbits
 306              		.align	2
 307              		.global	COMP_FAST_Start
 308              		.thumb
 309              		.thumb_func
 310              		.type	COMP_FAST_Start, %function
 311              	COMP_FAST_Start:
 312              	.LFB2:
 137:Generated_Source\PSoC5/COMP_FAST.c **** 
 313              		.loc 1 137 0
 314              		.cfi_startproc
 315              		@ args = 0, pretend = 0, frame = 0
 316              		@ frame_needed = 0, uses_anonymous_args = 0
 317 0000 08B5     		push	{r3, lr}
 318              		.cfi_def_cfa_offset 8
 319              		.cfi_offset 3, -8
 320              		.cfi_offset 14, -4
 139:Generated_Source\PSoC5/COMP_FAST.c ****     {
 321              		.loc 1 139 0
 322 0002 054B     		ldr	r3, .L32
 323 0004 1B78     		ldrb	r3, [r3]	@ zero_extendqisi2
 324 0006 23B9     		cbnz	r3, .L30
 141:Generated_Source\PSoC5/COMP_FAST.c ****         
 325              		.loc 1 141 0
 326 0008 FFF7FEFF 		bl	COMP_FAST_Init
 327              	.LVL10:
 143:Generated_Source\PSoC5/COMP_FAST.c ****     }   
 328              		.loc 1 143 0
 329 000c 0122     		movs	r2, #1
 330 000e 024B     		ldr	r3, .L32
 331 0010 1A70     		strb	r2, [r3]
 332              	.L30:
 147:Generated_Source\PSoC5/COMP_FAST.c **** }
 333              		.loc 1 147 0
 334 0012 FFF7FEFF 		bl	COMP_FAST_Enable
 335              	.LVL11:
 336 0016 08BD     		pop	{r3, pc}
 337              	.L33:
 338              		.align	2
 339              	.L32:
 340 0018 00000000 		.word	.LANCHOR0
 341              		.cfi_endproc
 342              	.LFE2:
ARM GAS  C:\Users\dr\AppData\Local\Temp\cchudzOF.s 			page 14


 343              		.size	COMP_FAST_Start, .-COMP_FAST_Start
 344              		.section	.text.COMP_FAST_GetCompare,"ax",%progbits
 345              		.align	2
 346              		.global	COMP_FAST_GetCompare
 347              		.thumb
 348              		.thumb_func
 349              		.type	COMP_FAST_GetCompare, %function
 350              	COMP_FAST_GetCompare:
 351              	.LFB5:
 252:Generated_Source\PSoC5/COMP_FAST.c ****     return( COMP_FAST_WRK & COMP_FAST_CMP_OUT_MASK);
 352              		.loc 1 252 0
 353              		.cfi_startproc
 354              		@ args = 0, pretend = 0, frame = 0
 355              		@ frame_needed = 0, uses_anonymous_args = 0
 356              		@ link register save eliminated.
 253:Generated_Source\PSoC5/COMP_FAST.c **** }
 357              		.loc 1 253 0
 358 0000 024B     		ldr	r3, .L35
 359 0002 1878     		ldrb	r0, [r3]	@ zero_extendqisi2
 254:Generated_Source\PSoC5/COMP_FAST.c **** 
 360              		.loc 1 254 0
 361 0004 00F00400 		and	r0, r0, #4
 362 0008 7047     		bx	lr
 363              	.L36:
 364 000a 00BF     		.align	2
 365              	.L35:
 366 000c 965B0040 		.word	1073765270
 367              		.cfi_endproc
 368              	.LFE5:
 369              		.size	COMP_FAST_GetCompare, .-COMP_FAST_GetCompare
 370              		.section	.text.COMP_FAST_ZeroCal,"ax",%progbits
 371              		.align	2
 372              		.global	COMP_FAST_ZeroCal
 373              		.thumb
 374              		.thumb_func
 375              		.type	COMP_FAST_ZeroCal, %function
 376              	COMP_FAST_ZeroCal:
 377              	.LFB7:
 373:Generated_Source\PSoC5/COMP_FAST.c ****         {
 374:Generated_Source\PSoC5/COMP_FAST.c ****             break;      /* output changed state, trim phase is complete */
 375:Generated_Source\PSoC5/COMP_FAST.c ****         }        
 376:Generated_Source\PSoC5/COMP_FAST.c ****     }    
 377:Generated_Source\PSoC5/COMP_FAST.c **** }
 378:Generated_Source\PSoC5/COMP_FAST.c **** 
 379:Generated_Source\PSoC5/COMP_FAST.c **** 
 380:Generated_Source\PSoC5/COMP_FAST.c **** /*******************************************************************************
 381:Generated_Source\PSoC5/COMP_FAST.c **** * Function Name: COMP_FAST_ZeroCal
 382:Generated_Source\PSoC5/COMP_FAST.c **** ********************************************************************************
 383:Generated_Source\PSoC5/COMP_FAST.c **** *
 384:Generated_Source\PSoC5/COMP_FAST.c **** * Summary:
 385:Generated_Source\PSoC5/COMP_FAST.c **** *  This function calibrates the offset of the Analog Comparator.
 386:Generated_Source\PSoC5/COMP_FAST.c **** *
 387:Generated_Source\PSoC5/COMP_FAST.c **** * Parameters:
 388:Generated_Source\PSoC5/COMP_FAST.c **** *  None
 389:Generated_Source\PSoC5/COMP_FAST.c **** *
 390:Generated_Source\PSoC5/COMP_FAST.c **** * Return:
 391:Generated_Source\PSoC5/COMP_FAST.c **** *  (uint16)  value written in trim register when calibration complete.
ARM GAS  C:\Users\dr\AppData\Local\Temp\cchudzOF.s 			page 15


 392:Generated_Source\PSoC5/COMP_FAST.c **** *
 393:Generated_Source\PSoC5/COMP_FAST.c **** * Theory: 
 394:Generated_Source\PSoC5/COMP_FAST.c **** *  This function is used to optimize the calibration for user specific voltage
 395:Generated_Source\PSoC5/COMP_FAST.c **** *  range.  The comparator trim is adjusted to counter transistor offsets
 396:Generated_Source\PSoC5/COMP_FAST.c **** *   - offset is defined as positive if the output transitions to high before inP
 397:Generated_Source\PSoC5/COMP_FAST.c **** *     is greater than inN
 398:Generated_Source\PSoC5/COMP_FAST.c **** *   - offset is defined as negative if the output transitions to high after inP
 399:Generated_Source\PSoC5/COMP_FAST.c **** *     is greater than inP
 400:Generated_Source\PSoC5/COMP_FAST.c **** *
 401:Generated_Source\PSoC5/COMP_FAST.c **** *  PSoC5A
 402:Generated_Source\PSoC5/COMP_FAST.c **** *  The Analog Comparator provides 1 byte for offset trim.  The byte contains two
 403:Generated_Source\PSoC5/COMP_FAST.c **** *  4 bit trim fields - one is a course trim and the other allows smaller
 404:Generated_Source\PSoC5/COMP_FAST.c **** *  offset adjustments only for slow modes.
 405:Generated_Source\PSoC5/COMP_FAST.c **** *  - low nibble - fine trim
 406:Generated_Source\PSoC5/COMP_FAST.c **** *  - high nibble - course trim
 407:Generated_Source\PSoC5/COMP_FAST.c **** *  PSoC3, PSoC5LP or later
 408:Generated_Source\PSoC5/COMP_FAST.c **** *  The Analog Comparator provides 2 bytes for offset trim.  The bytes contain two
 409:Generated_Source\PSoC5/COMP_FAST.c **** *  5 bit trim fields - one is a course trim and the other allows smaller
 410:Generated_Source\PSoC5/COMP_FAST.c **** *  offset adjustments only for slow modes.
 411:Generated_Source\PSoC5/COMP_FAST.c **** *  - TR0 - fine trim
 412:Generated_Source\PSoC5/COMP_FAST.c **** *  - TR1 - course trim
 413:Generated_Source\PSoC5/COMP_FAST.c **** *
 414:Generated_Source\PSoC5/COMP_FAST.c **** *  Trim algorithm is a two phase process
 415:Generated_Source\PSoC5/COMP_FAST.c **** *  The first phase performs course offset adjustment
 416:Generated_Source\PSoC5/COMP_FAST.c **** *  The second phase serves one of two purposes depending on the outcome of the
 417:Generated_Source\PSoC5/COMP_FAST.c **** *  first phase
 418:Generated_Source\PSoC5/COMP_FAST.c **** *  - if the first trim value was maxed out without a comparator output 
 419:Generated_Source\PSoC5/COMP_FAST.c **** *    transition, more offset will be added by adjusting the second trim value.
 420:Generated_Source\PSoC5/COMP_FAST.c **** *  - if the first trim phase resulted in a comparator output transition, the
 421:Generated_Source\PSoC5/COMP_FAST.c **** *    second trim value will serve as fine trim (in the opposite direction)to
 422:Generated_Source\PSoC5/COMP_FAST.c **** *    ensure the offset is < 1 mV.
 423:Generated_Source\PSoC5/COMP_FAST.c **** *
 424:Generated_Source\PSoC5/COMP_FAST.c **** * Trim Process:   
 425:Generated_Source\PSoC5/COMP_FAST.c **** *  1) User applies a voltage to the negative input.  Voltage should be in the
 426:Generated_Source\PSoC5/COMP_FAST.c **** *     comparator operating range or an average of the operating voltage range.
 427:Generated_Source\PSoC5/COMP_FAST.c **** *  2) Clear registers associated with analog routing to the positive input.
 428:Generated_Source\PSoC5/COMP_FAST.c **** *  3) Disable Hysteresis
 429:Generated_Source\PSoC5/COMP_FAST.c **** *  4) Set the calibration bit to short the negative and positive inputs to
 430:Generated_Source\PSoC5/COMP_FAST.c **** *     the users calibration voltage.
 431:Generated_Source\PSoC5/COMP_FAST.c **** *  5) Clear the TR register  ( TR = 0x00 )
 432:Generated_Source\PSoC5/COMP_FAST.c **** *  ** LOW MODES
 433:Generated_Source\PSoC5/COMP_FAST.c **** *  6) Check if compare output is high, if so, set the MSb of course trim field 
 434:Generated_Source\PSoC5/COMP_FAST.c **** *     to a 1.
 435:Generated_Source\PSoC5/COMP_FAST.c **** *  7) Increment the course trim field until the compare output changes
 436:Generated_Source\PSoC5/COMP_FAST.c **** *  8) Check if compare output is low, if so, set the MSb of fine trim field
 437:Generated_Source\PSoC5/COMP_FAST.c **** *     to a 1.
 438:Generated_Source\PSoC5/COMP_FAST.c **** *  9) Increment the fine trim field until the compare output changes
 439:Generated_Source\PSoC5/COMP_FAST.c **** *  ** FAST MODE - skip the steps 8,9
 440:Generated_Source\PSoC5/COMP_FAST.c **** *
 441:Generated_Source\PSoC5/COMP_FAST.c **** * Side Effects:
 442:Generated_Source\PSoC5/COMP_FAST.c **** *  Routine clears analog routing associated with the comparator positive input.  
 443:Generated_Source\PSoC5/COMP_FAST.c **** *  This may affect routing of signals from other components that are connected
 444:Generated_Source\PSoC5/COMP_FAST.c **** *  to the positive input of the comparator.
 445:Generated_Source\PSoC5/COMP_FAST.c **** *
 446:Generated_Source\PSoC5/COMP_FAST.c **** *******************************************************************************/
 447:Generated_Source\PSoC5/COMP_FAST.c **** uint16 COMP_FAST_ZeroCal(void) 
 448:Generated_Source\PSoC5/COMP_FAST.c **** {
ARM GAS  C:\Users\dr\AppData\Local\Temp\cchudzOF.s 			page 16


 378              		.loc 1 448 0
 379              		.cfi_startproc
 380              		@ args = 0, pretend = 0, frame = 0
 381              		@ frame_needed = 0, uses_anonymous_args = 0
 382 0000 F8B5     		push	{r3, r4, r5, r6, r7, lr}
 383              		.cfi_def_cfa_offset 24
 384              		.cfi_offset 3, -24
 385              		.cfi_offset 4, -20
 386              		.cfi_offset 5, -16
 387              		.cfi_offset 6, -12
 388              		.cfi_offset 7, -8
 389              		.cfi_offset 14, -4
 449:Generated_Source\PSoC5/COMP_FAST.c ****     uint8 tmpSW0;
 450:Generated_Source\PSoC5/COMP_FAST.c ****     uint8 tmpSW2;
 451:Generated_Source\PSoC5/COMP_FAST.c ****     uint8 tmpSW3;
 452:Generated_Source\PSoC5/COMP_FAST.c ****     uint8 tmpCR;
 453:Generated_Source\PSoC5/COMP_FAST.c **** 
 454:Generated_Source\PSoC5/COMP_FAST.c ****     /* Save a copy of routing registers associated with inP */
 455:Generated_Source\PSoC5/COMP_FAST.c ****     tmpSW0 = COMP_FAST_SW0;
 390              		.loc 1 455 0
 391 0002 1E48     		ldr	r0, .L41
 392 0004 0678     		ldrb	r6, [r0]	@ zero_extendqisi2
 393 0006 F6B2     		uxtb	r6, r6
 394              	.LVL12:
 456:Generated_Source\PSoC5/COMP_FAST.c ****     tmpSW2 = COMP_FAST_SW2;
 395              		.loc 1 456 0
 396 0008 1D49     		ldr	r1, .L41+4
 397 000a 0D78     		ldrb	r5, [r1]	@ zero_extendqisi2
 398 000c EDB2     		uxtb	r5, r5
 399              	.LVL13:
 457:Generated_Source\PSoC5/COMP_FAST.c ****     tmpSW3 = COMP_FAST_SW3;
 400              		.loc 1 457 0
 401 000e 1D4B     		ldr	r3, .L41+8
 402 0010 1C78     		ldrb	r4, [r3]	@ zero_extendqisi2
 403 0012 E4B2     		uxtb	r4, r4
 404              	.LVL14:
 458:Generated_Source\PSoC5/COMP_FAST.c **** 
 459:Generated_Source\PSoC5/COMP_FAST.c ****      /* Clear routing for inP, retain routing for inN */
 460:Generated_Source\PSoC5/COMP_FAST.c ****     COMP_FAST_SW0 = 0x00u;
 405              		.loc 1 460 0
 406 0014 0022     		movs	r2, #0
 407 0016 0270     		strb	r2, [r0]
 461:Generated_Source\PSoC5/COMP_FAST.c ****     COMP_FAST_SW2 = 0x00u;
 408              		.loc 1 461 0
 409 0018 0A70     		strb	r2, [r1]
 462:Generated_Source\PSoC5/COMP_FAST.c ****     COMP_FAST_SW3 = tmpSW3 & (uint8)(~COMP_FAST_CMP_SW3_INPCTL_MASK);
 410              		.loc 1 462 0
 411 001a 04F0F601 		and	r1, r4, #246
 412 001e 1970     		strb	r1, [r3]
 463:Generated_Source\PSoC5/COMP_FAST.c **** 
 464:Generated_Source\PSoC5/COMP_FAST.c ****     /* Preserve original configuration
 465:Generated_Source\PSoC5/COMP_FAST.c ****      * - turn off Hysteresis
 466:Generated_Source\PSoC5/COMP_FAST.c ****      * - set calibration bit - shorts inN to inP
 467:Generated_Source\PSoC5/COMP_FAST.c ****     */
 468:Generated_Source\PSoC5/COMP_FAST.c ****     tmpCR = COMP_FAST_CR;
 413              		.loc 1 468 0
 414 0020 A3F29123 		subw	r3, r3, #657
ARM GAS  C:\Users\dr\AppData\Local\Temp\cchudzOF.s 			page 17


 415 0024 1F78     		ldrb	r7, [r3]	@ zero_extendqisi2
 416 0026 FFB2     		uxtb	r7, r7
 417              	.LVL15:
 469:Generated_Source\PSoC5/COMP_FAST.c ****     COMP_FAST_CR |= (COMP_FAST_CAL_ON | COMP_FAST_HYST_OFF);
 418              		.loc 1 469 0
 419 0028 1978     		ldrb	r1, [r3]	@ zero_extendqisi2
 420 002a 41F03001 		orr	r1, r1, #48
 421 002e 1970     		strb	r1, [r3]
 470:Generated_Source\PSoC5/COMP_FAST.c ****     
 471:Generated_Source\PSoC5/COMP_FAST.c ****     /* Write default low values to trim register - no offset adjust */
 472:Generated_Source\PSoC5/COMP_FAST.c ****     /* PSoC5A */
 473:Generated_Source\PSoC5/COMP_FAST.c ****     #if (CY_PSOC5A)
 474:Generated_Source\PSoC5/COMP_FAST.c ****         COMP_FAST_TR = COMP_FAST_DEFAULT_CMP_TRIM;
 475:Generated_Source\PSoC5/COMP_FAST.c ****     #endif /* CY_PSOC5A */
 476:Generated_Source\PSoC5/COMP_FAST.c ****     
 477:Generated_Source\PSoC5/COMP_FAST.c ****     /* PSoC3, PSoC5LP or later */
 478:Generated_Source\PSoC5/COMP_FAST.c ****     #if (CY_PSOC3 || CY_PSOC5LP)
 479:Generated_Source\PSoC5/COMP_FAST.c ****         COMP_FAST_TR0 = COMP_FAST_DEFAULT_CMP_TRIM;
 422              		.loc 1 479 0
 423 0030 1549     		ldr	r1, .L41+12
 424 0032 0A70     		strb	r2, [r1]
 480:Generated_Source\PSoC5/COMP_FAST.c ****         COMP_FAST_TR1 = COMP_FAST_DEFAULT_CMP_TRIM;
 425              		.loc 1 480 0
 426 0034 0131     		adds	r1, r1, #1
 427 0036 0A70     		strb	r2, [r1]
 481:Generated_Source\PSoC5/COMP_FAST.c ****     #endif /* CY_PSOC3 || CY_PSOC5LP */
 482:Generated_Source\PSoC5/COMP_FAST.c **** 	
 483:Generated_Source\PSoC5/COMP_FAST.c **** 	/* Two phase trim - slow modes, one phase trim - for fast */ 
 484:Generated_Source\PSoC5/COMP_FAST.c ****     if ( (COMP_FAST_CR & COMP_FAST_PWR_MODE_MASK) == COMP_FAST_PWR_MODE_FAST)
 428              		.loc 1 484 0
 429 0038 1B78     		ldrb	r3, [r3]	@ zero_extendqisi2
 430 003a 03F00303 		and	r3, r3, #3
 431 003e 012B     		cmp	r3, #1
 432 0040 03D1     		bne	.L38
 485:Generated_Source\PSoC5/COMP_FAST.c ****     {
 486:Generated_Source\PSoC5/COMP_FAST.c ****         COMP_FAST_trimAdjust(0u);
 433              		.loc 1 486 0
 434 0042 1046     		mov	r0, r2
 435 0044 FFF7FEFF 		bl	COMP_FAST_trimAdjust
 436              	.LVL16:
 437 0048 05E0     		b	.L39
 438              	.L38:
 487:Generated_Source\PSoC5/COMP_FAST.c ****     }
 488:Generated_Source\PSoC5/COMP_FAST.c ****     else /* default to trim for fast modes */
 489:Generated_Source\PSoC5/COMP_FAST.c ****     {
 490:Generated_Source\PSoC5/COMP_FAST.c ****         COMP_FAST_trimAdjust(1u);
 439              		.loc 1 490 0
 440 004a 0120     		movs	r0, #1
 441 004c FFF7FEFF 		bl	COMP_FAST_trimAdjust
 442              	.LVL17:
 491:Generated_Source\PSoC5/COMP_FAST.c **** 		COMP_FAST_trimAdjust(0u);
 443              		.loc 1 491 0
 444 0050 0020     		movs	r0, #0
 445 0052 FFF7FEFF 		bl	COMP_FAST_trimAdjust
 446              	.LVL18:
 447              	.L39:
 492:Generated_Source\PSoC5/COMP_FAST.c ****     }
ARM GAS  C:\Users\dr\AppData\Local\Temp\cchudzOF.s 			page 18


 493:Generated_Source\PSoC5/COMP_FAST.c ****    
 494:Generated_Source\PSoC5/COMP_FAST.c ****     /* Restore Config Register */
 495:Generated_Source\PSoC5/COMP_FAST.c ****     COMP_FAST_CR = tmpCR;
 448              		.loc 1 495 0
 449 0056 0D4B     		ldr	r3, .L41+16
 450 0058 1F70     		strb	r7, [r3]
 496:Generated_Source\PSoC5/COMP_FAST.c ****     
 497:Generated_Source\PSoC5/COMP_FAST.c ****     /* Restore routing registers for inP */
 498:Generated_Source\PSoC5/COMP_FAST.c ****     COMP_FAST_SW0 = tmpSW0;
 451              		.loc 1 498 0
 452 005a 03F28E23 		addw	r3, r3, #654
 453 005e 1E70     		strb	r6, [r3]
 499:Generated_Source\PSoC5/COMP_FAST.c ****     COMP_FAST_SW2 = tmpSW2;
 454              		.loc 1 499 0
 455 0060 0233     		adds	r3, r3, #2
 456 0062 1D70     		strb	r5, [r3]
 500:Generated_Source\PSoC5/COMP_FAST.c ****     COMP_FAST_SW3 = tmpSW3;
 457              		.loc 1 500 0
 458 0064 0133     		adds	r3, r3, #1
 459 0066 1C70     		strb	r4, [r3]
 501:Generated_Source\PSoC5/COMP_FAST.c ****     
 502:Generated_Source\PSoC5/COMP_FAST.c ****     /* PSoC5A */
 503:Generated_Source\PSoC5/COMP_FAST.c ****     #if (CY_PSOC5A)
 504:Generated_Source\PSoC5/COMP_FAST.c ****         return (uint16) COMP_FAST_TR;
 505:Generated_Source\PSoC5/COMP_FAST.c ****     #endif /* CY_PSOC5A */
 506:Generated_Source\PSoC5/COMP_FAST.c ****     
 507:Generated_Source\PSoC5/COMP_FAST.c ****     /* PSoC3, PSoC5LP or later */
 508:Generated_Source\PSoC5/COMP_FAST.c ****     #if (CY_PSOC3 || CY_PSOC5LP)
 509:Generated_Source\PSoC5/COMP_FAST.c ****         return ((uint16)((uint16)COMP_FAST_TR1 << 8u) | (COMP_FAST_TR0));        
 460              		.loc 1 509 0
 461 0068 A3F5A453 		sub	r3, r3, #5248
 462 006c 1E3B     		subs	r3, r3, #30
 463 006e 1878     		ldrb	r0, [r3]	@ zero_extendqisi2
 464 0070 013B     		subs	r3, r3, #1
 465 0072 1B78     		ldrb	r3, [r3]	@ zero_extendqisi2
 510:Generated_Source\PSoC5/COMP_FAST.c ****     #endif /* CY_PSOC3 || CY_PSOC5LP */
 511:Generated_Source\PSoC5/COMP_FAST.c **** }
 466              		.loc 1 511 0
 467 0074 43EA0020 		orr	r0, r3, r0, lsl #8
 468 0078 F8BD     		pop	{r3, r4, r5, r6, r7, pc}
 469              	.LVL19:
 470              	.L42:
 471 007a 00BF     		.align	2
 472              	.L41:
 473 007c D05A0040 		.word	1073765072
 474 0080 D25A0040 		.word	1073765074
 475 0084 D35A0040 		.word	1073765075
 476 0088 34460040 		.word	1073759796
 477 008c 42580040 		.word	1073764418
 478              		.cfi_endproc
 479              	.LFE7:
 480              		.size	COMP_FAST_ZeroCal, .-COMP_FAST_ZeroCal
 481              		.section	.text.COMP_FAST_LoadTrim,"ax",%progbits
 482              		.align	2
 483              		.global	COMP_FAST_LoadTrim
 484              		.thumb
 485              		.thumb_func
ARM GAS  C:\Users\dr\AppData\Local\Temp\cchudzOF.s 			page 19


 486              		.type	COMP_FAST_LoadTrim, %function
 487              	COMP_FAST_LoadTrim:
 488              	.LFB8:
 512:Generated_Source\PSoC5/COMP_FAST.c **** 
 513:Generated_Source\PSoC5/COMP_FAST.c **** 
 514:Generated_Source\PSoC5/COMP_FAST.c **** /*******************************************************************************
 515:Generated_Source\PSoC5/COMP_FAST.c **** * Function Name: COMP_FAST_LoadTrim
 516:Generated_Source\PSoC5/COMP_FAST.c **** ********************************************************************************
 517:Generated_Source\PSoC5/COMP_FAST.c **** *
 518:Generated_Source\PSoC5/COMP_FAST.c **** * Summary:
 519:Generated_Source\PSoC5/COMP_FAST.c **** *  This function stores a value in the Analog Comparator trim register.
 520:Generated_Source\PSoC5/COMP_FAST.c **** *
 521:Generated_Source\PSoC5/COMP_FAST.c **** * Parameters:  
 522:Generated_Source\PSoC5/COMP_FAST.c **** *  uint8 trimVal - trim value.  This value is the same format as the value 
 523:Generated_Source\PSoC5/COMP_FAST.c **** *  returned by the _ZeroCal routine.
 524:Generated_Source\PSoC5/COMP_FAST.c **** *
 525:Generated_Source\PSoC5/COMP_FAST.c **** * Return:
 526:Generated_Source\PSoC5/COMP_FAST.c **** *  None
 527:Generated_Source\PSoC5/COMP_FAST.c **** *
 528:Generated_Source\PSoC5/COMP_FAST.c **** *******************************************************************************/
 529:Generated_Source\PSoC5/COMP_FAST.c **** void COMP_FAST_LoadTrim(uint16 trimVal) 
 530:Generated_Source\PSoC5/COMP_FAST.c **** {
 489              		.loc 1 530 0
 490              		.cfi_startproc
 491              		@ args = 0, pretend = 0, frame = 0
 492              		@ frame_needed = 0, uses_anonymous_args = 0
 493              		@ link register save eliminated.
 494              	.LVL20:
 531:Generated_Source\PSoC5/COMP_FAST.c ****     /* Stores value in the Analog Comparator trim register */
 532:Generated_Source\PSoC5/COMP_FAST.c ****     /* PSoC5A */
 533:Generated_Source\PSoC5/COMP_FAST.c ****     #if (CY_PSOC5A)
 534:Generated_Source\PSoC5/COMP_FAST.c ****         COMP_FAST_TR = (uint8) trimVal;
 535:Generated_Source\PSoC5/COMP_FAST.c ****     #endif /* CY_PSOC5A */
 536:Generated_Source\PSoC5/COMP_FAST.c ****     
 537:Generated_Source\PSoC5/COMP_FAST.c ****     /* PSoC3, PSoC5LP or later */
 538:Generated_Source\PSoC5/COMP_FAST.c ****     #if (CY_PSOC3 || CY_PSOC5LP)
 539:Generated_Source\PSoC5/COMP_FAST.c ****         /* Stores value in the Analog Comparator trim register for P-type load */
 540:Generated_Source\PSoC5/COMP_FAST.c ****         COMP_FAST_TR0 = (uint8) trimVal;
 495              		.loc 1 540 0
 496 0000 C2B2     		uxtb	r2, r0
 497 0002 034B     		ldr	r3, .L44
 498 0004 1A70     		strb	r2, [r3]
 541:Generated_Source\PSoC5/COMP_FAST.c ****         
 542:Generated_Source\PSoC5/COMP_FAST.c ****         /* Stores value in the Analog Comparator trim register for N-type load */
 543:Generated_Source\PSoC5/COMP_FAST.c ****         COMP_FAST_TR1 = (uint8) (trimVal >> 8); 
 499              		.loc 1 543 0
 500 0006 000A     		lsrs	r0, r0, #8
 501              	.LVL21:
 502 0008 0133     		adds	r3, r3, #1
 503 000a 1870     		strb	r0, [r3]
 504 000c 7047     		bx	lr
 505              	.L45:
 506 000e 00BF     		.align	2
 507              	.L44:
 508 0010 34460040 		.word	1073759796
 509              		.cfi_endproc
 510              	.LFE8:
ARM GAS  C:\Users\dr\AppData\Local\Temp\cchudzOF.s 			page 20


 511              		.size	COMP_FAST_LoadTrim, .-COMP_FAST_LoadTrim
 512              		.section	.text.COMP_FAST_PwrDwnOverrideEnable,"ax",%progbits
 513              		.align	2
 514              		.global	COMP_FAST_PwrDwnOverrideEnable
 515              		.thumb
 516              		.thumb_func
 517              		.type	COMP_FAST_PwrDwnOverrideEnable, %function
 518              	COMP_FAST_PwrDwnOverrideEnable:
 519              	.LFB9:
 544:Generated_Source\PSoC5/COMP_FAST.c ****     #endif /* CY_PSOC3 || CY_PSOC5LP */
 545:Generated_Source\PSoC5/COMP_FAST.c **** }
 546:Generated_Source\PSoC5/COMP_FAST.c **** 
 547:Generated_Source\PSoC5/COMP_FAST.c **** 
 548:Generated_Source\PSoC5/COMP_FAST.c **** #if (CY_PSOC3 || CY_PSOC5LP)
 549:Generated_Source\PSoC5/COMP_FAST.c **** 
 550:Generated_Source\PSoC5/COMP_FAST.c ****     /*******************************************************************************
 551:Generated_Source\PSoC5/COMP_FAST.c ****     * Function Name: COMP_FAST_PwrDwnOverrideEnable
 552:Generated_Source\PSoC5/COMP_FAST.c ****     ********************************************************************************
 553:Generated_Source\PSoC5/COMP_FAST.c ****     *
 554:Generated_Source\PSoC5/COMP_FAST.c ****     * Summary:
 555:Generated_Source\PSoC5/COMP_FAST.c ****     *  This is the power down over-ride feature. This function ignores sleep 
 556:Generated_Source\PSoC5/COMP_FAST.c ****     *  parameter and allows the component to stay active during sleep mode.
 557:Generated_Source\PSoC5/COMP_FAST.c ****     *
 558:Generated_Source\PSoC5/COMP_FAST.c ****     * Parameters:
 559:Generated_Source\PSoC5/COMP_FAST.c ****     *  None
 560:Generated_Source\PSoC5/COMP_FAST.c ****     *
 561:Generated_Source\PSoC5/COMP_FAST.c ****     * Return:
 562:Generated_Source\PSoC5/COMP_FAST.c ****     *  None
 563:Generated_Source\PSoC5/COMP_FAST.c ****     *
 564:Generated_Source\PSoC5/COMP_FAST.c ****     *******************************************************************************/
 565:Generated_Source\PSoC5/COMP_FAST.c ****     void COMP_FAST_PwrDwnOverrideEnable(void) 
 566:Generated_Source\PSoC5/COMP_FAST.c ****     {
 520              		.loc 1 566 0
 521              		.cfi_startproc
 522              		@ args = 0, pretend = 0, frame = 0
 523              		@ frame_needed = 0, uses_anonymous_args = 0
 524              		@ link register save eliminated.
 567:Generated_Source\PSoC5/COMP_FAST.c ****         /* Set the pd_override bit in CMP_CR register */
 568:Generated_Source\PSoC5/COMP_FAST.c ****         COMP_FAST_CR |= COMP_FAST_PWRDWN_OVRD;
 525              		.loc 1 568 0
 526 0000 024A     		ldr	r2, .L47
 527 0002 1378     		ldrb	r3, [r2]	@ zero_extendqisi2
 528 0004 43F00403 		orr	r3, r3, #4
 529 0008 1370     		strb	r3, [r2]
 530 000a 7047     		bx	lr
 531              	.L48:
 532              		.align	2
 533              	.L47:
 534 000c 42580040 		.word	1073764418
 535              		.cfi_endproc
 536              	.LFE9:
 537              		.size	COMP_FAST_PwrDwnOverrideEnable, .-COMP_FAST_PwrDwnOverrideEnable
 538              		.section	.text.COMP_FAST_PwrDwnOverrideDisable,"ax",%progbits
 539              		.align	2
 540              		.global	COMP_FAST_PwrDwnOverrideDisable
 541              		.thumb
 542              		.thumb_func
ARM GAS  C:\Users\dr\AppData\Local\Temp\cchudzOF.s 			page 21


 543              		.type	COMP_FAST_PwrDwnOverrideDisable, %function
 544              	COMP_FAST_PwrDwnOverrideDisable:
 545              	.LFB10:
 569:Generated_Source\PSoC5/COMP_FAST.c ****     }
 570:Generated_Source\PSoC5/COMP_FAST.c **** 
 571:Generated_Source\PSoC5/COMP_FAST.c **** 
 572:Generated_Source\PSoC5/COMP_FAST.c ****     /*******************************************************************************
 573:Generated_Source\PSoC5/COMP_FAST.c ****     * Function Name: COMP_FAST_PwrDwnOverrideDisable
 574:Generated_Source\PSoC5/COMP_FAST.c ****     ********************************************************************************
 575:Generated_Source\PSoC5/COMP_FAST.c ****     *
 576:Generated_Source\PSoC5/COMP_FAST.c ****     * Summary:
 577:Generated_Source\PSoC5/COMP_FAST.c ****     *  This is the power down over-ride feature. This allows the component to stay
 578:Generated_Source\PSoC5/COMP_FAST.c ****     *  inactive during sleep.
 579:Generated_Source\PSoC5/COMP_FAST.c ****     *
 580:Generated_Source\PSoC5/COMP_FAST.c ****     * Parameters:
 581:Generated_Source\PSoC5/COMP_FAST.c ****     *  None
 582:Generated_Source\PSoC5/COMP_FAST.c ****     *
 583:Generated_Source\PSoC5/COMP_FAST.c ****     * Return:
 584:Generated_Source\PSoC5/COMP_FAST.c ****     *  None
 585:Generated_Source\PSoC5/COMP_FAST.c ****     *
 586:Generated_Source\PSoC5/COMP_FAST.c ****     *******************************************************************************/
 587:Generated_Source\PSoC5/COMP_FAST.c ****     void COMP_FAST_PwrDwnOverrideDisable(void) 
 588:Generated_Source\PSoC5/COMP_FAST.c ****     {
 546              		.loc 1 588 0
 547              		.cfi_startproc
 548              		@ args = 0, pretend = 0, frame = 0
 549              		@ frame_needed = 0, uses_anonymous_args = 0
 550              		@ link register save eliminated.
 589:Generated_Source\PSoC5/COMP_FAST.c ****         /* Reset the pd_override bit in CMP_CR register */
 590:Generated_Source\PSoC5/COMP_FAST.c ****         COMP_FAST_CR &= (uint8)(~COMP_FAST_PWRDWN_OVRD);
 551              		.loc 1 590 0
 552 0000 024A     		ldr	r2, .L50
 553 0002 1378     		ldrb	r3, [r2]	@ zero_extendqisi2
 554 0004 03F0FB03 		and	r3, r3, #251
 555 0008 1370     		strb	r3, [r2]
 556 000a 7047     		bx	lr
 557              	.L51:
 558              		.align	2
 559              	.L50:
 560 000c 42580040 		.word	1073764418
 561              		.cfi_endproc
 562              	.LFE10:
 563              		.size	COMP_FAST_PwrDwnOverrideDisable, .-COMP_FAST_PwrDwnOverrideDisable
 564              		.global	COMP_FAST_initVar
 565              		.bss
 566              		.set	.LANCHOR0,. + 0
 567              		.type	COMP_FAST_initVar, %object
 568              		.size	COMP_FAST_initVar, 1
 569              	COMP_FAST_initVar:
 570 0000 00       		.space	1
 571              		.text
 572              	.Letext0:
 573              		.file 2 "Generated_Source\\PSoC5\\cytypes.h"
 574              		.file 3 "Generated_Source\\PSoC5\\CyLib.h"