ARM GAS  C:\Users\dr\AppData\Local\Temp\cclXYuEf.s 			page 1


   1              		.syntax unified
   2              		.cpu cortex-m3
   3              		.fpu softvfp
   4              		.eabi_attribute 20, 1
   5              		.eabi_attribute 21, 1
   6              		.eabi_attribute 23, 3
   7              		.eabi_attribute 24, 1
   8              		.eabi_attribute 25, 1
   9              		.eabi_attribute 26, 1
  10              		.eabi_attribute 30, 1
  11              		.eabi_attribute 34, 1
  12              		.eabi_attribute 18, 4
  13              		.thumb
  14              		.syntax unified
  15              		.file	"DAC_TH_FAST_PM.c"
  16              		.text
  17              	.Ltext0:
  18              		.cfi_sections	.debug_frame
  19              		.section	.text.DAC_TH_FAST_SaveConfig,"ax",%progbits
  20              		.align	2
  21              		.global	DAC_TH_FAST_SaveConfig
  22              		.thumb
  23              		.thumb_func
  24              		.type	DAC_TH_FAST_SaveConfig, %function
  25              	DAC_TH_FAST_SaveConfig:
  26              	.LFB2:
  27              		.file 1 "Generated_Source\\PSoC5\\DAC_TH_FAST_PM.c"
   1:Generated_Source\PSoC5/DAC_TH_FAST_PM.c **** /*******************************************************************************
   2:Generated_Source\PSoC5/DAC_TH_FAST_PM.c **** * File Name: DAC_TH_FAST_PM.c
   3:Generated_Source\PSoC5/DAC_TH_FAST_PM.c **** * Version 2.10
   4:Generated_Source\PSoC5/DAC_TH_FAST_PM.c **** *
   5:Generated_Source\PSoC5/DAC_TH_FAST_PM.c **** * Description:
   6:Generated_Source\PSoC5/DAC_TH_FAST_PM.c **** *  This file provides the power management source code to the API for the
   7:Generated_Source\PSoC5/DAC_TH_FAST_PM.c **** *  DVDAC component.
   8:Generated_Source\PSoC5/DAC_TH_FAST_PM.c **** *
   9:Generated_Source\PSoC5/DAC_TH_FAST_PM.c **** *
  10:Generated_Source\PSoC5/DAC_TH_FAST_PM.c **** ********************************************************************************
  11:Generated_Source\PSoC5/DAC_TH_FAST_PM.c **** * Copyright 2013, Cypress Semiconductor Corporation. All rights reserved.
  12:Generated_Source\PSoC5/DAC_TH_FAST_PM.c **** * You may use this file only in accordance with the license, terms, conditions,
  13:Generated_Source\PSoC5/DAC_TH_FAST_PM.c **** * disclaimers, and limitations in the end user license agreement accompanying
  14:Generated_Source\PSoC5/DAC_TH_FAST_PM.c **** * the software package with which this file was provided.
  15:Generated_Source\PSoC5/DAC_TH_FAST_PM.c **** *******************************************************************************/
  16:Generated_Source\PSoC5/DAC_TH_FAST_PM.c **** 
  17:Generated_Source\PSoC5/DAC_TH_FAST_PM.c **** #include "DAC_TH_FAST.h"
  18:Generated_Source\PSoC5/DAC_TH_FAST_PM.c **** #include "DAC_TH_FAST_VDAC8.h"
  19:Generated_Source\PSoC5/DAC_TH_FAST_PM.c **** 
  20:Generated_Source\PSoC5/DAC_TH_FAST_PM.c **** static DAC_TH_FAST_BACKUP_STRUCT  DAC_TH_FAST_backup;
  21:Generated_Source\PSoC5/DAC_TH_FAST_PM.c **** 
  22:Generated_Source\PSoC5/DAC_TH_FAST_PM.c **** 
  23:Generated_Source\PSoC5/DAC_TH_FAST_PM.c **** /*******************************************************************************
  24:Generated_Source\PSoC5/DAC_TH_FAST_PM.c **** * Function Name: DAC_TH_FAST_Sleep
  25:Generated_Source\PSoC5/DAC_TH_FAST_PM.c **** ********************************************************************************
  26:Generated_Source\PSoC5/DAC_TH_FAST_PM.c **** *
  27:Generated_Source\PSoC5/DAC_TH_FAST_PM.c **** * Summary:
  28:Generated_Source\PSoC5/DAC_TH_FAST_PM.c **** *  This is the preferred API to prepare the component for sleep. The
  29:Generated_Source\PSoC5/DAC_TH_FAST_PM.c **** *  DAC_TH_FAST_Sleep() API saves the current component state. Then it
  30:Generated_Source\PSoC5/DAC_TH_FAST_PM.c **** *  calls the DAC_TH_FAST_Stop() function and calls
ARM GAS  C:\Users\dr\AppData\Local\Temp\cclXYuEf.s 			page 2


  31:Generated_Source\PSoC5/DAC_TH_FAST_PM.c **** *  DAC_TH_FAST_SaveConfig() to save the hardware configuration. Call the
  32:Generated_Source\PSoC5/DAC_TH_FAST_PM.c **** *  DAC_TH_FAST_Sleep() function before calling the CyPmSleep() or the
  33:Generated_Source\PSoC5/DAC_TH_FAST_PM.c **** *  CyPmHibernate() function.
  34:Generated_Source\PSoC5/DAC_TH_FAST_PM.c **** *
  35:Generated_Source\PSoC5/DAC_TH_FAST_PM.c **** * Parameters:
  36:Generated_Source\PSoC5/DAC_TH_FAST_PM.c **** *  None
  37:Generated_Source\PSoC5/DAC_TH_FAST_PM.c **** *
  38:Generated_Source\PSoC5/DAC_TH_FAST_PM.c **** * Return:
  39:Generated_Source\PSoC5/DAC_TH_FAST_PM.c **** *  None
  40:Generated_Source\PSoC5/DAC_TH_FAST_PM.c **** *
  41:Generated_Source\PSoC5/DAC_TH_FAST_PM.c **** * Global variables:
  42:Generated_Source\PSoC5/DAC_TH_FAST_PM.c **** *  None
  43:Generated_Source\PSoC5/DAC_TH_FAST_PM.c **** *
  44:Generated_Source\PSoC5/DAC_TH_FAST_PM.c **** *******************************************************************************/
  45:Generated_Source\PSoC5/DAC_TH_FAST_PM.c **** void DAC_TH_FAST_Sleep(void) 
  46:Generated_Source\PSoC5/DAC_TH_FAST_PM.c **** {
  47:Generated_Source\PSoC5/DAC_TH_FAST_PM.c ****     /* Save VDAC8's enable state */
  48:Generated_Source\PSoC5/DAC_TH_FAST_PM.c ****     if(0u != (DAC_TH_FAST_VDAC8_PWRMGR & DAC_TH_FAST_VDAC8_ACT_PWR_EN))
  49:Generated_Source\PSoC5/DAC_TH_FAST_PM.c ****     {
  50:Generated_Source\PSoC5/DAC_TH_FAST_PM.c ****         DAC_TH_FAST_backup.enableState = 1u;
  51:Generated_Source\PSoC5/DAC_TH_FAST_PM.c ****     }
  52:Generated_Source\PSoC5/DAC_TH_FAST_PM.c ****     else
  53:Generated_Source\PSoC5/DAC_TH_FAST_PM.c ****     {
  54:Generated_Source\PSoC5/DAC_TH_FAST_PM.c ****         DAC_TH_FAST_backup.enableState = 0u;
  55:Generated_Source\PSoC5/DAC_TH_FAST_PM.c ****     }
  56:Generated_Source\PSoC5/DAC_TH_FAST_PM.c **** 
  57:Generated_Source\PSoC5/DAC_TH_FAST_PM.c ****     DAC_TH_FAST_Stop();
  58:Generated_Source\PSoC5/DAC_TH_FAST_PM.c ****     DAC_TH_FAST_SaveConfig();
  59:Generated_Source\PSoC5/DAC_TH_FAST_PM.c **** }
  60:Generated_Source\PSoC5/DAC_TH_FAST_PM.c **** 
  61:Generated_Source\PSoC5/DAC_TH_FAST_PM.c **** 
  62:Generated_Source\PSoC5/DAC_TH_FAST_PM.c **** /*******************************************************************************
  63:Generated_Source\PSoC5/DAC_TH_FAST_PM.c **** * Function Name: DAC_TH_FAST_Wakeup
  64:Generated_Source\PSoC5/DAC_TH_FAST_PM.c **** ********************************************************************************
  65:Generated_Source\PSoC5/DAC_TH_FAST_PM.c **** *
  66:Generated_Source\PSoC5/DAC_TH_FAST_PM.c **** * Summary:
  67:Generated_Source\PSoC5/DAC_TH_FAST_PM.c **** *  This is the preferred API to restore the component to the state when
  68:Generated_Source\PSoC5/DAC_TH_FAST_PM.c **** *  DAC_TH_FAST_Sleep() was called. The DAC_TH_FAST_Wakeup() function
  69:Generated_Source\PSoC5/DAC_TH_FAST_PM.c **** *  calls the DAC_TH_FAST_RestoreConfig() function to restore the
  70:Generated_Source\PSoC5/DAC_TH_FAST_PM.c **** *  configuration. If the component was enabled before the
  71:Generated_Source\PSoC5/DAC_TH_FAST_PM.c **** *  DAC_TH_FAST_Sleep() function was called, the DVDAC_Wakeup() function
  72:Generated_Source\PSoC5/DAC_TH_FAST_PM.c **** *  will also re-enable the component.
  73:Generated_Source\PSoC5/DAC_TH_FAST_PM.c **** *
  74:Generated_Source\PSoC5/DAC_TH_FAST_PM.c **** * Parameters:
  75:Generated_Source\PSoC5/DAC_TH_FAST_PM.c **** *  None
  76:Generated_Source\PSoC5/DAC_TH_FAST_PM.c **** *
  77:Generated_Source\PSoC5/DAC_TH_FAST_PM.c **** * Return:
  78:Generated_Source\PSoC5/DAC_TH_FAST_PM.c **** *  None
  79:Generated_Source\PSoC5/DAC_TH_FAST_PM.c **** *
  80:Generated_Source\PSoC5/DAC_TH_FAST_PM.c **** * Global variables:
  81:Generated_Source\PSoC5/DAC_TH_FAST_PM.c **** *  None
  82:Generated_Source\PSoC5/DAC_TH_FAST_PM.c **** *
  83:Generated_Source\PSoC5/DAC_TH_FAST_PM.c **** *******************************************************************************/
  84:Generated_Source\PSoC5/DAC_TH_FAST_PM.c **** void DAC_TH_FAST_Wakeup(void) 
  85:Generated_Source\PSoC5/DAC_TH_FAST_PM.c **** {
  86:Generated_Source\PSoC5/DAC_TH_FAST_PM.c ****     DAC_TH_FAST_RestoreConfig();
  87:Generated_Source\PSoC5/DAC_TH_FAST_PM.c **** 
ARM GAS  C:\Users\dr\AppData\Local\Temp\cclXYuEf.s 			page 3


  88:Generated_Source\PSoC5/DAC_TH_FAST_PM.c ****     if(DAC_TH_FAST_backup.enableState == 1u)
  89:Generated_Source\PSoC5/DAC_TH_FAST_PM.c ****     {
  90:Generated_Source\PSoC5/DAC_TH_FAST_PM.c ****         DAC_TH_FAST_Enable();
  91:Generated_Source\PSoC5/DAC_TH_FAST_PM.c ****     }
  92:Generated_Source\PSoC5/DAC_TH_FAST_PM.c **** }
  93:Generated_Source\PSoC5/DAC_TH_FAST_PM.c **** 
  94:Generated_Source\PSoC5/DAC_TH_FAST_PM.c **** 
  95:Generated_Source\PSoC5/DAC_TH_FAST_PM.c **** /*******************************************************************************
  96:Generated_Source\PSoC5/DAC_TH_FAST_PM.c **** * Function Name: DAC_TH_FAST_SaveConfig
  97:Generated_Source\PSoC5/DAC_TH_FAST_PM.c **** ********************************************************************************
  98:Generated_Source\PSoC5/DAC_TH_FAST_PM.c **** *
  99:Generated_Source\PSoC5/DAC_TH_FAST_PM.c **** * Summary:
 100:Generated_Source\PSoC5/DAC_TH_FAST_PM.c **** *  This function saves the component configuration and non-retention registers.
 101:Generated_Source\PSoC5/DAC_TH_FAST_PM.c **** *  This function is called by the DAC_TH_FAST_Sleep() function.
 102:Generated_Source\PSoC5/DAC_TH_FAST_PM.c **** *
 103:Generated_Source\PSoC5/DAC_TH_FAST_PM.c **** * Parameters:
 104:Generated_Source\PSoC5/DAC_TH_FAST_PM.c **** *  None
 105:Generated_Source\PSoC5/DAC_TH_FAST_PM.c **** *
 106:Generated_Source\PSoC5/DAC_TH_FAST_PM.c **** * Return:
 107:Generated_Source\PSoC5/DAC_TH_FAST_PM.c **** *  None
 108:Generated_Source\PSoC5/DAC_TH_FAST_PM.c **** *
 109:Generated_Source\PSoC5/DAC_TH_FAST_PM.c **** * Global variables:
 110:Generated_Source\PSoC5/DAC_TH_FAST_PM.c **** *  None
 111:Generated_Source\PSoC5/DAC_TH_FAST_PM.c **** *
 112:Generated_Source\PSoC5/DAC_TH_FAST_PM.c **** *******************************************************************************/
 113:Generated_Source\PSoC5/DAC_TH_FAST_PM.c **** void DAC_TH_FAST_SaveConfig(void) 
 114:Generated_Source\PSoC5/DAC_TH_FAST_PM.c **** {
  28              		.loc 1 114 0
  29              		.cfi_startproc
  30              		@ args = 0, pretend = 0, frame = 0
  31              		@ frame_needed = 0, uses_anonymous_args = 0
  32 0000 08B5     		push	{r3, lr}
  33              		.cfi_def_cfa_offset 8
  34              		.cfi_offset 3, -8
  35              		.cfi_offset 14, -4
 115:Generated_Source\PSoC5/DAC_TH_FAST_PM.c ****     DAC_TH_FAST_VDAC8_SaveConfig();
  36              		.loc 1 115 0
  37 0002 FFF7FEFF 		bl	DAC_TH_FAST_VDAC8_SaveConfig
  38              	.LVL0:
  39 0006 08BD     		pop	{r3, pc}
  40              		.cfi_endproc
  41              	.LFE2:
  42              		.size	DAC_TH_FAST_SaveConfig, .-DAC_TH_FAST_SaveConfig
  43              		.section	.text.DAC_TH_FAST_Sleep,"ax",%progbits
  44              		.align	2
  45              		.global	DAC_TH_FAST_Sleep
  46              		.thumb
  47              		.thumb_func
  48              		.type	DAC_TH_FAST_Sleep, %function
  49              	DAC_TH_FAST_Sleep:
  50              	.LFB0:
  46:Generated_Source\PSoC5/DAC_TH_FAST_PM.c ****     /* Save VDAC8's enable state */
  51              		.loc 1 46 0
  52              		.cfi_startproc
  53              		@ args = 0, pretend = 0, frame = 0
  54              		@ frame_needed = 0, uses_anonymous_args = 0
  55 0000 08B5     		push	{r3, lr}
ARM GAS  C:\Users\dr\AppData\Local\Temp\cclXYuEf.s 			page 4


  56              		.cfi_def_cfa_offset 8
  57              		.cfi_offset 3, -8
  58              		.cfi_offset 14, -4
  48:Generated_Source\PSoC5/DAC_TH_FAST_PM.c ****     {
  59              		.loc 1 48 0
  60 0002 084B     		ldr	r3, .L7
  61 0004 1B78     		ldrb	r3, [r3]	@ zero_extendqisi2
  62 0006 13F0020F 		tst	r3, #2
  63 000a 03D0     		beq	.L4
  50:Generated_Source\PSoC5/DAC_TH_FAST_PM.c ****     }
  64              		.loc 1 50 0
  65 000c 0122     		movs	r2, #1
  66 000e 064B     		ldr	r3, .L7+4
  67 0010 1A70     		strb	r2, [r3]
  68 0012 02E0     		b	.L5
  69              	.L4:
  54:Generated_Source\PSoC5/DAC_TH_FAST_PM.c ****     }
  70              		.loc 1 54 0
  71 0014 0022     		movs	r2, #0
  72 0016 044B     		ldr	r3, .L7+4
  73 0018 1A70     		strb	r2, [r3]
  74              	.L5:
  57:Generated_Source\PSoC5/DAC_TH_FAST_PM.c ****     DAC_TH_FAST_SaveConfig();
  75              		.loc 1 57 0
  76 001a FFF7FEFF 		bl	DAC_TH_FAST_Stop
  77              	.LVL1:
  58:Generated_Source\PSoC5/DAC_TH_FAST_PM.c **** }
  78              		.loc 1 58 0
  79 001e FFF7FEFF 		bl	DAC_TH_FAST_SaveConfig
  80              	.LVL2:
  81 0022 08BD     		pop	{r3, pc}
  82              	.L8:
  83              		.align	2
  84              	.L7:
  85 0024 A8430040 		.word	1073759144
  86 0028 00000000 		.word	.LANCHOR0
  87              		.cfi_endproc
  88              	.LFE0:
  89              		.size	DAC_TH_FAST_Sleep, .-DAC_TH_FAST_Sleep
  90              		.section	.text.DAC_TH_FAST_RestoreConfig,"ax",%progbits
  91              		.align	2
  92              		.global	DAC_TH_FAST_RestoreConfig
  93              		.thumb
  94              		.thumb_func
  95              		.type	DAC_TH_FAST_RestoreConfig, %function
  96              	DAC_TH_FAST_RestoreConfig:
  97              	.LFB3:
 116:Generated_Source\PSoC5/DAC_TH_FAST_PM.c **** }
 117:Generated_Source\PSoC5/DAC_TH_FAST_PM.c **** 
 118:Generated_Source\PSoC5/DAC_TH_FAST_PM.c **** 
 119:Generated_Source\PSoC5/DAC_TH_FAST_PM.c **** /*******************************************************************************
 120:Generated_Source\PSoC5/DAC_TH_FAST_PM.c **** * Function Name: DAC_TH_FAST_RestoreConfig
 121:Generated_Source\PSoC5/DAC_TH_FAST_PM.c **** ********************************************************************************
 122:Generated_Source\PSoC5/DAC_TH_FAST_PM.c **** *
 123:Generated_Source\PSoC5/DAC_TH_FAST_PM.c **** * Summary:
 124:Generated_Source\PSoC5/DAC_TH_FAST_PM.c **** *  This function restores the component configuration and non-retention
 125:Generated_Source\PSoC5/DAC_TH_FAST_PM.c **** *  registers. This function is called by the DAC_TH_FAST_Wakeup() function.
ARM GAS  C:\Users\dr\AppData\Local\Temp\cclXYuEf.s 			page 5


 126:Generated_Source\PSoC5/DAC_TH_FAST_PM.c **** *
 127:Generated_Source\PSoC5/DAC_TH_FAST_PM.c **** * Parameters:
 128:Generated_Source\PSoC5/DAC_TH_FAST_PM.c **** *  None
 129:Generated_Source\PSoC5/DAC_TH_FAST_PM.c **** *
 130:Generated_Source\PSoC5/DAC_TH_FAST_PM.c **** * Return:
 131:Generated_Source\PSoC5/DAC_TH_FAST_PM.c **** *  None
 132:Generated_Source\PSoC5/DAC_TH_FAST_PM.c **** *
 133:Generated_Source\PSoC5/DAC_TH_FAST_PM.c **** * Global variables:
 134:Generated_Source\PSoC5/DAC_TH_FAST_PM.c **** *  None
 135:Generated_Source\PSoC5/DAC_TH_FAST_PM.c **** *
 136:Generated_Source\PSoC5/DAC_TH_FAST_PM.c **** *******************************************************************************/
 137:Generated_Source\PSoC5/DAC_TH_FAST_PM.c **** void DAC_TH_FAST_RestoreConfig(void) 
 138:Generated_Source\PSoC5/DAC_TH_FAST_PM.c **** {
  98              		.loc 1 138 0
  99              		.cfi_startproc
 100              		@ args = 0, pretend = 0, frame = 0
 101              		@ frame_needed = 0, uses_anonymous_args = 0
 102 0000 08B5     		push	{r3, lr}
 103              		.cfi_def_cfa_offset 8
 104              		.cfi_offset 3, -8
 105              		.cfi_offset 14, -4
 139:Generated_Source\PSoC5/DAC_TH_FAST_PM.c ****     DAC_TH_FAST_VDAC8_RestoreConfig();
 106              		.loc 1 139 0
 107 0002 FFF7FEFF 		bl	DAC_TH_FAST_VDAC8_RestoreConfig
 108              	.LVL3:
 109 0006 08BD     		pop	{r3, pc}
 110              		.cfi_endproc
 111              	.LFE3:
 112              		.size	DAC_TH_FAST_RestoreConfig, .-DAC_TH_FAST_RestoreConfig
 113              		.section	.text.DAC_TH_FAST_Wakeup,"ax",%progbits
 114              		.align	2
 115              		.global	DAC_TH_FAST_Wakeup
 116              		.thumb
 117              		.thumb_func
 118              		.type	DAC_TH_FAST_Wakeup, %function
 119              	DAC_TH_FAST_Wakeup:
 120              	.LFB1:
  85:Generated_Source\PSoC5/DAC_TH_FAST_PM.c ****     DAC_TH_FAST_RestoreConfig();
 121              		.loc 1 85 0
 122              		.cfi_startproc
 123              		@ args = 0, pretend = 0, frame = 0
 124              		@ frame_needed = 0, uses_anonymous_args = 0
 125 0000 08B5     		push	{r3, lr}
 126              		.cfi_def_cfa_offset 8
 127              		.cfi_offset 3, -8
 128              		.cfi_offset 14, -4
  86:Generated_Source\PSoC5/DAC_TH_FAST_PM.c **** 
 129              		.loc 1 86 0
 130 0002 FFF7FEFF 		bl	DAC_TH_FAST_RestoreConfig
 131              	.LVL4:
  88:Generated_Source\PSoC5/DAC_TH_FAST_PM.c ****     {
 132              		.loc 1 88 0
 133 0006 034B     		ldr	r3, .L14
 134 0008 1B78     		ldrb	r3, [r3]	@ zero_extendqisi2
 135 000a 012B     		cmp	r3, #1
 136 000c 01D1     		bne	.L11
  90:Generated_Source\PSoC5/DAC_TH_FAST_PM.c ****     }
ARM GAS  C:\Users\dr\AppData\Local\Temp\cclXYuEf.s 			page 6


 137              		.loc 1 90 0
 138 000e FFF7FEFF 		bl	DAC_TH_FAST_Enable
 139              	.LVL5:
 140              	.L11:
 141 0012 08BD     		pop	{r3, pc}
 142              	.L15:
 143              		.align	2
 144              	.L14:
 145 0014 00000000 		.word	.LANCHOR0
 146              		.cfi_endproc
 147              	.LFE1:
 148              		.size	DAC_TH_FAST_Wakeup, .-DAC_TH_FAST_Wakeup
 149              		.bss
 150              		.align	2
 151              		.set	.LANCHOR0,. + 0
 152              		.type	DAC_TH_FAST_backup, %object
 153              		.size	DAC_TH_FAST_backup, 1
 154              	DAC_TH_FAST_backup:
 155 0000 00       		.space	1
 156              		.text
 157              	.Letext0:
 158              		.file 2 "Generated_Source\\PSoC5\\cytypes.h"
 159              		.file 3 "Generated_Source\\PSoC5\\DAC_TH_FAST.h"
 160              		.file 4 "Generated_Source\\PSoC5\\DAC_TH_FAST_VDAC8.h"