ARM GAS  C:\Users\dr\AppData\Local\Temp\cc0dz7FY.s 			page 1


   1              		.syntax unified
   2              		.cpu cortex-m3
   3              		.fpu softvfp
   4              		.eabi_attribute 20, 1
   5              		.eabi_attribute 21, 1
   6              		.eabi_attribute 23, 3
   7              		.eabi_attribute 24, 1
   8              		.eabi_attribute 25, 1
   9              		.eabi_attribute 26, 1
  10              		.eabi_attribute 30, 1
  11              		.eabi_attribute 34, 1
  12              		.eabi_attribute 18, 4
  13              		.thumb
  14              		.syntax unified
  15              		.file	"txsubsystem.c"
  16              		.text
  17              	.Ltext0:
  18              		.cfi_sections	.debug_frame
  19              		.section	.text.ISR_SYMB_h,"ax",%progbits
  20              		.align	2
  21              		.global	ISR_SYMB_h
  22              		.thumb
  23              		.thumb_func
  24              		.type	ISR_SYMB_h, %function
  25              	ISR_SYMB_h:
  26              	.LFB64:
  27              		.file 1 "txsubsystem.c"
   1:txsubsystem.c **** /* ========================================
   2:txsubsystem.c ****  *
   3:txsubsystem.c ****  * SHW - Visible light Communication Controller
   4:txsubsystem.c ****  * Bjarki Johannsson 2017
   5:txsubsystem.c ****  * Open Source
   6:txsubsystem.c ****  *
   7:txsubsystem.c ****  *
   8:txsubsystem.c ****  * ========================================
   9:txsubsystem.c **** */
  10:txsubsystem.c **** 
  11:txsubsystem.c **** #include "txsubsystem.h"
  12:txsubsystem.c **** #include "main.h"
  13:txsubsystem.c **** 
  14:txsubsystem.c **** void INIT_TX_SUBSYSTEM(void)
  15:txsubsystem.c **** {
  16:txsubsystem.c **** 
  17:txsubsystem.c **** 	/* Initialize compensation tracking values */
  18:txsubsystem.c **** 	m2Track[0] = -1;
  19:txsubsystem.c **** 	m2Track[1] = 1;
  20:txsubsystem.c **** 	int i;
  21:txsubsystem.c **** 	for (i=0; i<2; i++) {
  22:txsubsystem.c **** 		
  23:txsubsystem.c **** 		m4Track[i] = -3 + 2*i;
  24:txsubsystem.c **** 		m4Track[i+2] = 1 + 2*i;
  25:txsubsystem.c **** 	}
  26:txsubsystem.c **** 	for (i=0; i<4; i++) {
  27:txsubsystem.c **** 		
  28:txsubsystem.c **** 		m8Track[i] = -7 + 2*i;
  29:txsubsystem.c **** 		m8Track[i+4] = 1 + 2*i;
  30:txsubsystem.c **** 	}
ARM GAS  C:\Users\dr\AppData\Local\Temp\cc0dz7FY.s 			page 2


  31:txsubsystem.c **** 	for (i=0; i<8; i++) {
  32:txsubsystem.c **** 		
  33:txsubsystem.c **** 		m16Track[i] = -15 + 2*i;
  34:txsubsystem.c **** 		m16Track[i+8] = 1 + 2*i;
  35:txsubsystem.c **** 	}
  36:txsubsystem.c **** 	for (i=0; i<16; i++) {
  37:txsubsystem.c **** 		
  38:txsubsystem.c **** 		m32Track[i] = -31 + 2*i;
  39:txsubsystem.c **** 		m32Track[i+16] = 1 + 2*i;
  40:txsubsystem.c **** 	}
  41:txsubsystem.c **** 	
  42:txsubsystem.c **** 	
  43:txsubsystem.c **** 	/* Init ISRs */
  44:txsubsystem.c **** 	ISR_SYMB_StartEx(ISR_SYMB_h);
  45:txsubsystem.c **** 	ISR_SYMB_Enable();
  46:txsubsystem.c **** 	
  47:txsubsystem.c **** 	ISR_INJ_StartEx(ISR_INJ_h);
  48:txsubsystem.c **** 	ISR_INJ_Enable();
  49:txsubsystem.c **** 	
  50:txsubsystem.c **** 	ISR_INJ_CHECK_StartEx(ISR_INJ_CHECK_h);
  51:txsubsystem.c **** 	ISR_INJ_CHECK_Enable();
  52:txsubsystem.c **** 	
  53:txsubsystem.c **** 	ISR_TX_DONE_StartEx(ISR_TX_DONE_h);
  54:txsubsystem.c **** 	ISR_TX_DONE_Enable();
  55:txsubsystem.c **** 	
  56:txsubsystem.c **** 	/* Init DMAs */
  57:txsubsystem.c **** 	DMA_HAM2SER_Chan = DMA_HAM2SER_DmaInitialize(DMA_HAM2SER_BYTES_PER_BURST, DMA_HAM2SER_REQUEST_PER_
  58:txsubsystem.c **** 	    HI16(DMA_HAM2SER_SRC_BASE), HI16(DMA_HAM2SER_DST_BASE));
  59:txsubsystem.c **** 	DMA_HAM2SER_TD[0] = CyDmaTdAllocate();
  60:txsubsystem.c **** 	CyDmaTdSetConfiguration(DMA_HAM2SER_TD[0], 1, DMA_HAM2SER_TD[0], 0);
  61:txsubsystem.c **** 	CyDmaTdSetAddress(DMA_HAM2SER_TD[0], LO16((uint32)SREG_HAM_OUT_Status_PTR), LO16((uint32)CREG_SER_
  62:txsubsystem.c **** 	CyDmaChSetInitialTd(DMA_HAM2SER_Chan, DMA_HAM2SER_TD[0]);
  63:txsubsystem.c **** 	CyDmaChEnable(DMA_HAM2SER_Chan, 1);
  64:txsubsystem.c **** 	
  65:txsubsystem.c **** }
  66:txsubsystem.c **** 
  67:txsubsystem.c **** 
  68:txsubsystem.c **** /* Resolve next symbol */
  69:txsubsystem.c **** CY_ISR(ISR_SYMB_h)
  70:txsubsystem.c **** {
  28              		.loc 1 70 0
  29              		.cfi_startproc
  30              		@ args = 0, pretend = 0, frame = 0
  31              		@ frame_needed = 0, uses_anonymous_args = 0
  32 0000 08B5     		push	{r3, lr}
  33              		.cfi_def_cfa_offset 8
  34              		.cfi_offset 3, -8
  35              		.cfi_offset 14, -4
  71:txsubsystem.c **** 	uint8 sym = SREG_SYMB_Read() & lMask;
  36              		.loc 1 71 0
  37 0002 FFF7FEFF 		bl	SREG_SYMB_Read
  38              	.LVL0:
  39 0006 204B     		ldr	r3, .L9
  40 0008 1B78     		ldrb	r3, [r3]	@ zero_extendqisi2
  41 000a 1840     		ands	r0, r0, r3
  42              	.LVL1:
  72:txsubsystem.c **** 	switch(modLevel) {
ARM GAS  C:\Users\dr\AppData\Local\Temp\cc0dz7FY.s 			page 3


  43              		.loc 1 72 0
  44 000c 1F4B     		ldr	r3, .L9+4
  45 000e 1B78     		ldrb	r3, [r3]	@ zero_extendqisi2
  46 0010 013B     		subs	r3, r3, #1
  47 0012 032B     		cmp	r3, #3
  48 0014 2ED8     		bhi	.L2
  49 0016 DFE803F0 		tbb	[pc, r3]
  50              	.L4:
  51 001a 02       		.byte	(.L3-.L4)/2
  52 001b 0D       		.byte	(.L5-.L4)/2
  53 001c 18       		.byte	(.L6-.L4)/2
  54 001d 23       		.byte	(.L7-.L4)/2
  55              		.p2align 1
  56              	.L3:
  73:txsubsystem.c **** 		case M2:
  74:txsubsystem.c **** 			symbolNext = m2[sym];
  57              		.loc 1 74 0
  58 001e 1C4B     		ldr	r3, .L9+8
  59 0020 1A5C     		ldrb	r2, [r3, r0]	@ zero_extendqisi2
  60 0022 1C4B     		ldr	r3, .L9+12
  61 0024 1A70     		strb	r2, [r3]
  75:txsubsystem.c **** 			trackSum += m2Track[sym];
  62              		.loc 1 75 0
  63 0026 1C4B     		ldr	r3, .L9+16
  64 0028 1956     		ldrsb	r1, [r3, r0]
  65 002a 1C4A     		ldr	r2, .L9+20
  66 002c 1388     		ldrh	r3, [r2]
  67 002e 0B44     		add	r3, r3, r1
  68 0030 1380     		strh	r3, [r2]	@ movhi
  76:txsubsystem.c **** 			break;
  69              		.loc 1 76 0
  70 0032 1FE0     		b	.L2
  71              	.L5:
  77:txsubsystem.c **** 		case M4:
  78:txsubsystem.c **** 			symbolNext = m4[sym];
  72              		.loc 1 78 0
  73 0034 1A4B     		ldr	r3, .L9+24
  74 0036 1A5C     		ldrb	r2, [r3, r0]	@ zero_extendqisi2
  75 0038 164B     		ldr	r3, .L9+12
  76 003a 1A70     		strb	r2, [r3]
  79:txsubsystem.c **** 			trackSum += m4Track[sym];
  77              		.loc 1 79 0
  78 003c 194B     		ldr	r3, .L9+28
  79 003e 1956     		ldrsb	r1, [r3, r0]
  80 0040 164A     		ldr	r2, .L9+20
  81 0042 1388     		ldrh	r3, [r2]
  82 0044 0B44     		add	r3, r3, r1
  83 0046 1380     		strh	r3, [r2]	@ movhi
  80:txsubsystem.c **** 			break;
  84              		.loc 1 80 0
  85 0048 14E0     		b	.L2
  86              	.L6:
  81:txsubsystem.c **** 		case M8:
  82:txsubsystem.c **** 			symbolNext = m8[sym];
  87              		.loc 1 82 0
  88 004a 174B     		ldr	r3, .L9+32
  89 004c 1A5C     		ldrb	r2, [r3, r0]	@ zero_extendqisi2
ARM GAS  C:\Users\dr\AppData\Local\Temp\cc0dz7FY.s 			page 4


  90 004e 114B     		ldr	r3, .L9+12
  91 0050 1A70     		strb	r2, [r3]
  83:txsubsystem.c **** 			trackSum += m8Track[sym];
  92              		.loc 1 83 0
  93 0052 164B     		ldr	r3, .L9+36
  94 0054 1956     		ldrsb	r1, [r3, r0]
  95 0056 114A     		ldr	r2, .L9+20
  96 0058 1388     		ldrh	r3, [r2]
  97 005a 0B44     		add	r3, r3, r1
  98 005c 1380     		strh	r3, [r2]	@ movhi
  84:txsubsystem.c **** 			break;
  99              		.loc 1 84 0
 100 005e 09E0     		b	.L2
 101              	.L7:
  85:txsubsystem.c **** 		case M16:
  86:txsubsystem.c **** 			symbolNext = m16[sym];
 102              		.loc 1 86 0
 103 0060 134B     		ldr	r3, .L9+40
 104 0062 1A5C     		ldrb	r2, [r3, r0]	@ zero_extendqisi2
 105 0064 0B4B     		ldr	r3, .L9+12
 106 0066 1A70     		strb	r2, [r3]
  87:txsubsystem.c **** 			trackSum += m16Track[sym];
 107              		.loc 1 87 0
 108 0068 124B     		ldr	r3, .L9+44
 109 006a 1956     		ldrsb	r1, [r3, r0]
 110 006c 0B4A     		ldr	r2, .L9+20
 111 006e 1388     		ldrh	r3, [r2]
 112 0070 0B44     		add	r3, r3, r1
 113 0072 1380     		strh	r3, [r2]	@ movhi
 114              	.L2:
  88:txsubsystem.c **** 			break;
  89:txsubsystem.c **** 		default:
  90:txsubsystem.c **** 			break;
  91:txsubsystem.c **** 	}
  92:txsubsystem.c **** 	symTx[symCnt++] = sym;
 115              		.loc 1 92 0
 116 0074 104A     		ldr	r2, .L9+48
 117 0076 1378     		ldrb	r3, [r2]	@ zero_extendqisi2
 118 0078 591C     		adds	r1, r3, #1
 119 007a 1170     		strb	r1, [r2]
 120 007c 0F4A     		ldr	r2, .L9+52
 121 007e D054     		strb	r0, [r2, r3]
  93:txsubsystem.c **** 	
  94:txsubsystem.c **** 	ISR_SYMB_ClearPending();
 122              		.loc 1 94 0
 123 0080 FFF7FEFF 		bl	ISR_SYMB_ClearPending
 124              	.LVL2:
 125 0084 08BD     		pop	{r3, pc}
 126              	.L10:
 127 0086 00BF     		.align	2
 128              	.L9:
 129 0088 00000000 		.word	lMask
 130 008c 00000000 		.word	modLevel
 131 0090 00000000 		.word	m2
 132 0094 00000000 		.word	symbolNext
 133 0098 00000000 		.word	m2Track
 134 009c 00000000 		.word	trackSum
ARM GAS  C:\Users\dr\AppData\Local\Temp\cc0dz7FY.s 			page 5


 135 00a0 00000000 		.word	m4
 136 00a4 00000000 		.word	m4Track
 137 00a8 00000000 		.word	m8
 138 00ac 00000000 		.word	m8Track
 139 00b0 00000000 		.word	m16
 140 00b4 00000000 		.word	m16Track
 141 00b8 00000000 		.word	symCnt
 142 00bc 00000000 		.word	symTx
 143              		.cfi_endproc
 144              	.LFE64:
 145              		.size	ISR_SYMB_h, .-ISR_SYMB_h
 146              		.section	.text.ISR_INJ_CHECK_h,"ax",%progbits
 147              		.align	2
 148              		.global	ISR_INJ_CHECK_h
 149              		.thumb
 150              		.thumb_func
 151              		.type	ISR_INJ_CHECK_h, %function
 152              	ISR_INJ_CHECK_h:
 153              	.LFB65:
  95:txsubsystem.c **** }
  96:txsubsystem.c **** 
  97:txsubsystem.c **** 
  98:txsubsystem.c **** /* Check if injection is required */
  99:txsubsystem.c **** CY_ISR(ISR_INJ_CHECK_h)
 100:txsubsystem.c **** {
 154              		.loc 1 100 0
 155              		.cfi_startproc
 156              		@ args = 0, pretend = 0, frame = 0
 157              		@ frame_needed = 0, uses_anonymous_args = 0
 158 0000 08B5     		push	{r3, lr}
 159              		.cfi_def_cfa_offset 8
 160              		.cfi_offset 3, -8
 161              		.cfi_offset 14, -4
 101:txsubsystem.c **** 	if (trackSum == 0) {
 162              		.loc 1 101 0
 163 0002 064B     		ldr	r3, .L14
 164 0004 B3F90030 		ldrsh	r3, [r3]
 165 0008 2BB9     		cbnz	r3, .L12
 166              	.LBB2:
 102:txsubsystem.c **** 		
 103:txsubsystem.c **** 		CREG_INJ_RES_Write(1);
 167              		.loc 1 103 0
 168 000a 0120     		movs	r0, #1
 169 000c FFF7FEFF 		bl	CREG_INJ_RES_Write
 170              	.LVL3:
 104:txsubsystem.c **** 		CREG_INJ_RES_Write(0);
 171              		.loc 1 104 0
 172 0010 0020     		movs	r0, #0
 173 0012 FFF7FEFF 		bl	CREG_INJ_RES_Write
 174              	.LVL4:
 175              	.L12:
 176              	.LBE2:
 105:txsubsystem.c **** 	}
 106:txsubsystem.c **** 
 107:txsubsystem.c **** 	
 108:txsubsystem.c **** 	ISR_INJ_CHECK_ClearPending();
 177              		.loc 1 108 0
ARM GAS  C:\Users\dr\AppData\Local\Temp\cc0dz7FY.s 			page 6


 178 0016 FFF7FEFF 		bl	ISR_INJ_CHECK_ClearPending
 179              	.LVL5:
 180 001a 08BD     		pop	{r3, pc}
 181              	.L15:
 182              		.align	2
 183              	.L14:
 184 001c 00000000 		.word	trackSum
 185              		.cfi_endproc
 186              	.LFE65:
 187              		.size	ISR_INJ_CHECK_h, .-ISR_INJ_CHECK_h
 188              		.section	.text.ISR_INJ_h,"ax",%progbits
 189              		.align	2
 190              		.global	ISR_INJ_h
 191              		.thumb
 192              		.thumb_func
 193              		.type	ISR_INJ_h, %function
 194              	ISR_INJ_h:
 195              	.LFB66:
 109:txsubsystem.c **** }
 110:txsubsystem.c **** 
 111:txsubsystem.c **** 
 112:txsubsystem.c **** /* Resolve next injected symbol */
 113:txsubsystem.c **** CY_ISR(ISR_INJ_h)
 114:txsubsystem.c **** {
 196              		.loc 1 114 0
 197              		.cfi_startproc
 198              		@ args = 0, pretend = 0, frame = 0
 199              		@ frame_needed = 0, uses_anonymous_args = 0
 200 0000 08B5     		push	{r3, lr}
 201              		.cfi_def_cfa_offset 8
 202              		.cfi_offset 3, -8
 203              		.cfi_offset 14, -4
 115:txsubsystem.c **** 	switch(modLevel) {
 204              		.loc 1 115 0
 205 0002 544B     		ldr	r3, .L34
 206 0004 1B78     		ldrb	r3, [r3]	@ zero_extendqisi2
 207 0006 022B     		cmp	r3, #2
 208 0008 19D0     		beq	.L18
 209 000a 032B     		cmp	r3, #3
 210 000c 41D0     		beq	.L19
 211 000e 012B     		cmp	r3, #1
 212 0010 40F09280 		bne	.L17
 116:txsubsystem.c **** 		case M2:
 117:txsubsystem.c **** 			if (trackSum < 0) {
 213              		.loc 1 117 0
 214 0014 504B     		ldr	r3, .L34+4
 215 0016 B3F90030 		ldrsh	r3, [r3]
 216 001a 002B     		cmp	r3, #0
 217 001c 07DA     		bge	.L21
 118:txsubsystem.c **** 				
 119:txsubsystem.c **** 				symbolNext = m2[1];
 218              		.loc 1 119 0
 219 001e 4F4A     		ldr	r2, .L34+8
 220 0020 5178     		ldrb	r1, [r2, #1]	@ zero_extendqisi2
 221 0022 4F4A     		ldr	r2, .L34+12
 222 0024 1170     		strb	r1, [r2]
 120:txsubsystem.c **** 				trackSum ++;
ARM GAS  C:\Users\dr\AppData\Local\Temp\cc0dz7FY.s 			page 7


 223              		.loc 1 120 0
 224 0026 0133     		adds	r3, r3, #1
 225 0028 4B4A     		ldr	r2, .L34+4
 226 002a 1380     		strh	r3, [r2]	@ movhi
 227 002c 84E0     		b	.L17
 228              	.L21:
 121:txsubsystem.c **** 			}
 122:txsubsystem.c **** 			else {
 123:txsubsystem.c **** 				
 124:txsubsystem.c **** 				symbolNext = m2[0];
 229              		.loc 1 124 0
 230 002e 4B4A     		ldr	r2, .L34+8
 231 0030 1178     		ldrb	r1, [r2]	@ zero_extendqisi2
 232 0032 4B4A     		ldr	r2, .L34+12
 233 0034 1170     		strb	r1, [r2]
 125:txsubsystem.c **** 				trackSum --;
 234              		.loc 1 125 0
 235 0036 013B     		subs	r3, r3, #1
 236 0038 474A     		ldr	r2, .L34+4
 237 003a 1380     		strh	r3, [r2]	@ movhi
 238 003c 7CE0     		b	.L17
 239              	.L18:
 126:txsubsystem.c **** 			}
 127:txsubsystem.c **** 			break;
 128:txsubsystem.c **** 		case M4:
 129:txsubsystem.c **** 			if (trackSum < 0) {
 240              		.loc 1 129 0
 241 003e 464B     		ldr	r3, .L34+4
 242 0040 B3F90030 		ldrsh	r3, [r3]
 243 0044 002B     		cmp	r3, #0
 244 0046 12DA     		bge	.L22
 130:txsubsystem.c **** 				
 131:txsubsystem.c **** 				if (trackSum < -1) {
 245              		.loc 1 131 0
 246 0048 B3F1FF3F 		cmp	r3, #-1
 247 004c 07DA     		bge	.L23
 132:txsubsystem.c **** 					
 133:txsubsystem.c **** 					symbolNext = m4[3];
 248              		.loc 1 133 0
 249 004e 454A     		ldr	r2, .L34+16
 250 0050 D178     		ldrb	r1, [r2, #3]	@ zero_extendqisi2
 251 0052 434A     		ldr	r2, .L34+12
 252 0054 1170     		strb	r1, [r2]
 134:txsubsystem.c **** 					trackSum += 3;
 253              		.loc 1 134 0
 254 0056 0333     		adds	r3, r3, #3
 255 0058 3F4A     		ldr	r2, .L34+4
 256 005a 1380     		strh	r3, [r2]	@ movhi
 257 005c 6CE0     		b	.L17
 258              	.L23:
 135:txsubsystem.c **** 				}
 136:txsubsystem.c **** 				else {
 137:txsubsystem.c **** 					
 138:txsubsystem.c **** 					symbolNext = m4[2];
 259              		.loc 1 138 0
 260 005e 414A     		ldr	r2, .L34+16
 261 0060 9178     		ldrb	r1, [r2, #2]	@ zero_extendqisi2
ARM GAS  C:\Users\dr\AppData\Local\Temp\cc0dz7FY.s 			page 8


 262 0062 3F4A     		ldr	r2, .L34+12
 263 0064 1170     		strb	r1, [r2]
 139:txsubsystem.c **** 					trackSum += 1;
 264              		.loc 1 139 0
 265 0066 0133     		adds	r3, r3, #1
 266 0068 3B4A     		ldr	r2, .L34+4
 267 006a 1380     		strh	r3, [r2]	@ movhi
 268 006c 64E0     		b	.L17
 269              	.L22:
 140:txsubsystem.c **** 				}
 141:txsubsystem.c **** 			}
 142:txsubsystem.c **** 			else {
 143:txsubsystem.c **** 				
 144:txsubsystem.c **** 				if (trackSum > 1) {
 270              		.loc 1 144 0
 271 006e 012B     		cmp	r3, #1
 272 0070 07DD     		ble	.L24
 145:txsubsystem.c **** 					
 146:txsubsystem.c **** 					symbolNext = m4[0];
 273              		.loc 1 146 0
 274 0072 3C4A     		ldr	r2, .L34+16
 275 0074 1178     		ldrb	r1, [r2]	@ zero_extendqisi2
 276 0076 3A4A     		ldr	r2, .L34+12
 277 0078 1170     		strb	r1, [r2]
 147:txsubsystem.c **** 					trackSum -= 3;
 278              		.loc 1 147 0
 279 007a 033B     		subs	r3, r3, #3
 280 007c 364A     		ldr	r2, .L34+4
 281 007e 1380     		strh	r3, [r2]	@ movhi
 282 0080 5AE0     		b	.L17
 283              	.L24:
 148:txsubsystem.c **** 				}
 149:txsubsystem.c **** 				else {
 150:txsubsystem.c **** 					
 151:txsubsystem.c **** 					symbolNext = m4[1];
 284              		.loc 1 151 0
 285 0082 384A     		ldr	r2, .L34+16
 286 0084 5178     		ldrb	r1, [r2, #1]	@ zero_extendqisi2
 287 0086 364A     		ldr	r2, .L34+12
 288 0088 1170     		strb	r1, [r2]
 152:txsubsystem.c **** 					trackSum -= 1;
 289              		.loc 1 152 0
 290 008a 013B     		subs	r3, r3, #1
 291 008c 324A     		ldr	r2, .L34+4
 292 008e 1380     		strh	r3, [r2]	@ movhi
 293 0090 52E0     		b	.L17
 294              	.L19:
 153:txsubsystem.c **** 				}
 154:txsubsystem.c **** 			}
 155:txsubsystem.c **** 			break;
 156:txsubsystem.c **** 		case M8:
 157:txsubsystem.c **** 			if (trackSum < 0) {
 295              		.loc 1 157 0
 296 0092 314B     		ldr	r3, .L34+4
 297 0094 B3F90030 		ldrsh	r3, [r3]
 298 0098 002B     		cmp	r3, #0
 299 009a 28DA     		bge	.L25
ARM GAS  C:\Users\dr\AppData\Local\Temp\cc0dz7FY.s 			page 9


 158:txsubsystem.c **** 				
 159:txsubsystem.c **** 				if (trackSum < -5) {
 300              		.loc 1 159 0
 301 009c 13F1050F 		cmn	r3, #5
 302 00a0 07DA     		bge	.L26
 160:txsubsystem.c **** 					
 161:txsubsystem.c **** 					symbolNext = m8[7];
 303              		.loc 1 161 0
 304 00a2 314A     		ldr	r2, .L34+20
 305 00a4 D179     		ldrb	r1, [r2, #7]	@ zero_extendqisi2
 306 00a6 2E4A     		ldr	r2, .L34+12
 307 00a8 1170     		strb	r1, [r2]
 162:txsubsystem.c **** 					trackSum += 7;
 308              		.loc 1 162 0
 309 00aa 0733     		adds	r3, r3, #7
 310 00ac 2A4A     		ldr	r2, .L34+4
 311 00ae 1380     		strh	r3, [r2]	@ movhi
 312 00b0 42E0     		b	.L17
 313              	.L26:
 163:txsubsystem.c **** 				}
 164:txsubsystem.c **** 				else if (trackSum < -3) {
 314              		.loc 1 164 0
 315 00b2 13F1030F 		cmn	r3, #3
 316 00b6 07DA     		bge	.L27
 165:txsubsystem.c **** 					
 166:txsubsystem.c **** 					symbolNext = m8[6];
 317              		.loc 1 166 0
 318 00b8 2B4A     		ldr	r2, .L34+20
 319 00ba 9179     		ldrb	r1, [r2, #6]	@ zero_extendqisi2
 320 00bc 284A     		ldr	r2, .L34+12
 321 00be 1170     		strb	r1, [r2]
 167:txsubsystem.c **** 					trackSum += 5;
 322              		.loc 1 167 0
 323 00c0 0533     		adds	r3, r3, #5
 324 00c2 254A     		ldr	r2, .L34+4
 325 00c4 1380     		strh	r3, [r2]	@ movhi
 326 00c6 37E0     		b	.L17
 327              	.L27:
 168:txsubsystem.c **** 				}
 169:txsubsystem.c **** 				else if (trackSum < -1) {
 328              		.loc 1 169 0
 329 00c8 B3F1FF3F 		cmp	r3, #-1
 330 00cc 07DA     		bge	.L28
 170:txsubsystem.c **** 					
 171:txsubsystem.c **** 					symbolNext = m8[5];
 331              		.loc 1 171 0
 332 00ce 264A     		ldr	r2, .L34+20
 333 00d0 5179     		ldrb	r1, [r2, #5]	@ zero_extendqisi2
 334 00d2 234A     		ldr	r2, .L34+12
 335 00d4 1170     		strb	r1, [r2]
 172:txsubsystem.c **** 					trackSum += 3;
 336              		.loc 1 172 0
 337 00d6 0333     		adds	r3, r3, #3
 338 00d8 1F4A     		ldr	r2, .L34+4
 339 00da 1380     		strh	r3, [r2]	@ movhi
 340 00dc 2CE0     		b	.L17
 341              	.L28:
ARM GAS  C:\Users\dr\AppData\Local\Temp\cc0dz7FY.s 			page 10


 173:txsubsystem.c **** 				}
 174:txsubsystem.c **** 				else {
 175:txsubsystem.c **** 					
 176:txsubsystem.c **** 					symbolNext = m8[4];
 342              		.loc 1 176 0
 343 00de 224A     		ldr	r2, .L34+20
 344 00e0 1179     		ldrb	r1, [r2, #4]	@ zero_extendqisi2
 345 00e2 1F4A     		ldr	r2, .L34+12
 346 00e4 1170     		strb	r1, [r2]
 177:txsubsystem.c **** 					trackSum += 1;
 347              		.loc 1 177 0
 348 00e6 0133     		adds	r3, r3, #1
 349 00e8 1B4A     		ldr	r2, .L34+4
 350 00ea 1380     		strh	r3, [r2]	@ movhi
 351 00ec 24E0     		b	.L17
 352              	.L25:
 178:txsubsystem.c **** 				}
 179:txsubsystem.c **** 			}
 180:txsubsystem.c **** 			else {
 181:txsubsystem.c **** 				
 182:txsubsystem.c **** 				if (trackSum > 5) {
 353              		.loc 1 182 0
 354 00ee 052B     		cmp	r3, #5
 355 00f0 07DD     		ble	.L29
 183:txsubsystem.c **** 					
 184:txsubsystem.c **** 					symbolNext = m8[0];
 356              		.loc 1 184 0
 357 00f2 1D4A     		ldr	r2, .L34+20
 358 00f4 1178     		ldrb	r1, [r2]	@ zero_extendqisi2
 359 00f6 1A4A     		ldr	r2, .L34+12
 360 00f8 1170     		strb	r1, [r2]
 185:txsubsystem.c **** 					trackSum -= 7;
 361              		.loc 1 185 0
 362 00fa 073B     		subs	r3, r3, #7
 363 00fc 164A     		ldr	r2, .L34+4
 364 00fe 1380     		strh	r3, [r2]	@ movhi
 365 0100 1AE0     		b	.L17
 366              	.L29:
 186:txsubsystem.c **** 				}
 187:txsubsystem.c **** 				else if (trackSum > 3) {
 367              		.loc 1 187 0
 368 0102 032B     		cmp	r3, #3
 369 0104 07DD     		ble	.L30
 188:txsubsystem.c **** 					
 189:txsubsystem.c **** 					symbolNext = m8[1];
 370              		.loc 1 189 0
 371 0106 184A     		ldr	r2, .L34+20
 372 0108 5178     		ldrb	r1, [r2, #1]	@ zero_extendqisi2
 373 010a 154A     		ldr	r2, .L34+12
 374 010c 1170     		strb	r1, [r2]
 190:txsubsystem.c **** 					trackSum -= 5;
 375              		.loc 1 190 0
 376 010e 053B     		subs	r3, r3, #5
 377 0110 114A     		ldr	r2, .L34+4
 378 0112 1380     		strh	r3, [r2]	@ movhi
 379 0114 10E0     		b	.L17
 380              	.L30:
ARM GAS  C:\Users\dr\AppData\Local\Temp\cc0dz7FY.s 			page 11


 191:txsubsystem.c **** 				}
 192:txsubsystem.c **** 				else if (trackSum > 1) {
 381              		.loc 1 192 0
 382 0116 012B     		cmp	r3, #1
 383 0118 07DD     		ble	.L31
 193:txsubsystem.c **** 					
 194:txsubsystem.c **** 					symbolNext = m8[2];
 384              		.loc 1 194 0
 385 011a 134A     		ldr	r2, .L34+20
 386 011c 9178     		ldrb	r1, [r2, #2]	@ zero_extendqisi2
 387 011e 104A     		ldr	r2, .L34+12
 388 0120 1170     		strb	r1, [r2]
 195:txsubsystem.c **** 					trackSum -= 3;
 389              		.loc 1 195 0
 390 0122 033B     		subs	r3, r3, #3
 391 0124 0C4A     		ldr	r2, .L34+4
 392 0126 1380     		strh	r3, [r2]	@ movhi
 393 0128 06E0     		b	.L17
 394              	.L31:
 196:txsubsystem.c **** 				}
 197:txsubsystem.c **** 				else {
 198:txsubsystem.c **** 					
 199:txsubsystem.c **** 					symbolNext = m8[3];
 395              		.loc 1 199 0
 396 012a 0F4A     		ldr	r2, .L34+20
 397 012c D178     		ldrb	r1, [r2, #3]	@ zero_extendqisi2
 398 012e 0C4A     		ldr	r2, .L34+12
 399 0130 1170     		strb	r1, [r2]
 200:txsubsystem.c **** 					trackSum -= 1;
 400              		.loc 1 200 0
 401 0132 013B     		subs	r3, r3, #1
 402 0134 084A     		ldr	r2, .L34+4
 403 0136 1380     		strh	r3, [r2]	@ movhi
 404              	.L17:
 201:txsubsystem.c **** 				}
 202:txsubsystem.c **** 			}
 203:txsubsystem.c **** 			break;	
 204:txsubsystem.c **** 		default:
 205:txsubsystem.c **** 			break;
 206:txsubsystem.c **** 	}
 207:txsubsystem.c **** 	
 208:txsubsystem.c **** 	if (trackSum == 0) {
 405              		.loc 1 208 0
 406 0138 074B     		ldr	r3, .L34+4
 407 013a B3F90030 		ldrsh	r3, [r3]
 408 013e 2BB9     		cbnz	r3, .L32
 409              	.LBB3:
 209:txsubsystem.c **** 		
 210:txsubsystem.c **** 		CREG_INJ_RES_Write(1);
 410              		.loc 1 210 0
 411 0140 0120     		movs	r0, #1
 412 0142 FFF7FEFF 		bl	CREG_INJ_RES_Write
 413              	.LVL6:
 211:txsubsystem.c **** 		CREG_INJ_RES_Write(0);
 414              		.loc 1 211 0
 415 0146 0020     		movs	r0, #0
 416 0148 FFF7FEFF 		bl	CREG_INJ_RES_Write
ARM GAS  C:\Users\dr\AppData\Local\Temp\cc0dz7FY.s 			page 12


 417              	.LVL7:
 418              	.L32:
 419              	.LBE3:
 212:txsubsystem.c **** 	}
 213:txsubsystem.c **** 		
 214:txsubsystem.c **** 	ISR_INJ_ClearPending();
 420              		.loc 1 214 0
 421 014c FFF7FEFF 		bl	ISR_INJ_ClearPending
 422              	.LVL8:
 423 0150 08BD     		pop	{r3, pc}
 424              	.L35:
 425 0152 00BF     		.align	2
 426              	.L34:
 427 0154 00000000 		.word	modLevel
 428 0158 00000000 		.word	trackSum
 429 015c 00000000 		.word	m2
 430 0160 00000000 		.word	symbolNext
 431 0164 00000000 		.word	m4
 432 0168 00000000 		.word	m8
 433              		.cfi_endproc
 434              	.LFE66:
 435              		.size	ISR_INJ_h, .-ISR_INJ_h
 436              		.section	.text.ISR_TX_DONE_h,"ax",%progbits
 437              		.align	2
 438              		.global	ISR_TX_DONE_h
 439              		.thumb
 440              		.thumb_func
 441              		.type	ISR_TX_DONE_h, %function
 442              	ISR_TX_DONE_h:
 443              	.LFB67:
 215:txsubsystem.c **** }
 216:txsubsystem.c **** 
 217:txsubsystem.c **** 
 218:txsubsystem.c **** /* ISR to shutdown transmission, after packet is transmitted */
 219:txsubsystem.c **** CY_ISR(ISR_TX_DONE_h)
 220:txsubsystem.c **** {
 444              		.loc 1 220 0
 445              		.cfi_startproc
 446              		@ args = 0, pretend = 0, frame = 0
 447              		@ frame_needed = 0, uses_anonymous_args = 0
 448 0000 08B5     		push	{r3, lr}
 449              		.cfi_def_cfa_offset 8
 450              		.cfi_offset 3, -8
 451              		.cfi_offset 14, -4
 221:txsubsystem.c **** 	FLAG_TX_EVENT = true;
 452              		.loc 1 221 0
 453 0002 0123     		movs	r3, #1
 454 0004 034A     		ldr	r2, .L38
 455 0006 1370     		strb	r3, [r2]
 222:txsubsystem.c **** 	FLAG_TX_DONE = true;
 456              		.loc 1 222 0
 457 0008 034A     		ldr	r2, .L38+4
 458 000a 1370     		strb	r3, [r2]
 223:txsubsystem.c **** 	
 224:txsubsystem.c **** 	ISR_TX_DONE_ClearPending();
 459              		.loc 1 224 0
 460 000c FFF7FEFF 		bl	ISR_TX_DONE_ClearPending
ARM GAS  C:\Users\dr\AppData\Local\Temp\cc0dz7FY.s 			page 13


 461              	.LVL9:
 462 0010 08BD     		pop	{r3, pc}
 463              	.L39:
 464 0012 00BF     		.align	2
 465              	.L38:
 466 0014 00000000 		.word	FLAG_TX_EVENT
 467 0018 00000000 		.word	FLAG_TX_DONE
 468              		.cfi_endproc
 469              	.LFE67:
 470              		.size	ISR_TX_DONE_h, .-ISR_TX_DONE_h
 471              		.section	.text.INIT_TX_SUBSYSTEM,"ax",%progbits
 472              		.align	2
 473              		.global	INIT_TX_SUBSYSTEM
 474              		.thumb
 475              		.thumb_func
 476              		.type	INIT_TX_SUBSYSTEM, %function
 477              	INIT_TX_SUBSYSTEM:
 478              	.LFB63:
  15:txsubsystem.c **** 
 479              		.loc 1 15 0
 480              		.cfi_startproc
 481              		@ args = 0, pretend = 0, frame = 0
 482              		@ frame_needed = 0, uses_anonymous_args = 0
 483 0000 38B5     		push	{r3, r4, r5, lr}
 484              		.cfi_def_cfa_offset 16
 485              		.cfi_offset 3, -16
 486              		.cfi_offset 4, -12
 487              		.cfi_offset 5, -8
 488              		.cfi_offset 14, -4
  18:txsubsystem.c **** 	m2Track[1] = 1;
 489              		.loc 1 18 0
 490 0002 394B     		ldr	r3, .L50
 491 0004 FF22     		movs	r2, #255
 492 0006 1A70     		strb	r2, [r3]
  19:txsubsystem.c **** 	int i;
 493              		.loc 1 19 0
 494 0008 0122     		movs	r2, #1
 495 000a 5A70     		strb	r2, [r3, #1]
 496              	.LVL10:
  21:txsubsystem.c **** 		
 497              		.loc 1 21 0
 498 000c 0023     		movs	r3, #0
 499 000e 08E0     		b	.L41
 500              	.LVL11:
 501              	.L42:
  23:txsubsystem.c **** 		m4Track[i+2] = 1 + 2*i;
 502              		.loc 1 23 0 discriminator 3
 503 0010 5A00     		lsls	r2, r3, #1
 504 0012 D2B2     		uxtb	r2, r2
 505 0014 3549     		ldr	r1, .L50+4
 506 0016 D01E     		subs	r0, r2, #3
 507 0018 C854     		strb	r0, [r1, r3]
  24:txsubsystem.c **** 	}
 508              		.loc 1 24 0 discriminator 3
 509 001a 981C     		adds	r0, r3, #2
 510 001c 0132     		adds	r2, r2, #1
 511 001e 0A54     		strb	r2, [r1, r0]
ARM GAS  C:\Users\dr\AppData\Local\Temp\cc0dz7FY.s 			page 14


  21:txsubsystem.c **** 		
 512              		.loc 1 21 0 discriminator 3
 513 0020 0133     		adds	r3, r3, #1
 514              	.LVL12:
 515              	.L41:
  21:txsubsystem.c **** 		
 516              		.loc 1 21 0 is_stmt 0 discriminator 1
 517 0022 012B     		cmp	r3, #1
 518 0024 F4DD     		ble	.L42
 519 0026 0022     		movs	r2, #0
 520 0028 08E0     		b	.L43
 521              	.LVL13:
 522              	.L44:
  28:txsubsystem.c **** 		m8Track[i+4] = 1 + 2*i;
 523              		.loc 1 28 0 is_stmt 1 discriminator 3
 524 002a 5300     		lsls	r3, r2, #1
 525 002c DBB2     		uxtb	r3, r3
 526 002e 3049     		ldr	r1, .L50+8
 527 0030 D81F     		subs	r0, r3, #7
 528 0032 8854     		strb	r0, [r1, r2]
  29:txsubsystem.c **** 	}
 529              		.loc 1 29 0 discriminator 3
 530 0034 101D     		adds	r0, r2, #4
 531 0036 0133     		adds	r3, r3, #1
 532 0038 0B54     		strb	r3, [r1, r0]
  26:txsubsystem.c **** 		
 533              		.loc 1 26 0 discriminator 3
 534 003a 0132     		adds	r2, r2, #1
 535              	.LVL14:
 536              	.L43:
  26:txsubsystem.c **** 		
 537              		.loc 1 26 0 is_stmt 0 discriminator 1
 538 003c 032A     		cmp	r2, #3
 539 003e F4DD     		ble	.L44
 540 0040 0022     		movs	r2, #0
 541              	.LVL15:
 542 0042 0AE0     		b	.L45
 543              	.LVL16:
 544              	.L46:
  33:txsubsystem.c **** 		m16Track[i+8] = 1 + 2*i;
 545              		.loc 1 33 0 is_stmt 1 discriminator 3
 546 0044 5300     		lsls	r3, r2, #1
 547 0046 DBB2     		uxtb	r3, r3
 548 0048 2A49     		ldr	r1, .L50+12
 549 004a A3F10F00 		sub	r0, r3, #15
 550 004e 8854     		strb	r0, [r1, r2]
  34:txsubsystem.c **** 	}
 551              		.loc 1 34 0 discriminator 3
 552 0050 02F10800 		add	r0, r2, #8
 553 0054 0133     		adds	r3, r3, #1
 554 0056 0B54     		strb	r3, [r1, r0]
  31:txsubsystem.c **** 		
 555              		.loc 1 31 0 discriminator 3
 556 0058 0132     		adds	r2, r2, #1
 557              	.LVL17:
 558              	.L45:
  31:txsubsystem.c **** 		
ARM GAS  C:\Users\dr\AppData\Local\Temp\cc0dz7FY.s 			page 15


 559              		.loc 1 31 0 is_stmt 0 discriminator 1
 560 005a 072A     		cmp	r2, #7
 561 005c F2DD     		ble	.L46
 562 005e 0022     		movs	r2, #0
 563              	.LVL18:
 564 0060 0AE0     		b	.L47
 565              	.LVL19:
 566              	.L48:
  38:txsubsystem.c **** 		m32Track[i+16] = 1 + 2*i;
 567              		.loc 1 38 0 is_stmt 1 discriminator 3
 568 0062 5300     		lsls	r3, r2, #1
 569 0064 DBB2     		uxtb	r3, r3
 570 0066 2449     		ldr	r1, .L50+16
 571 0068 A3F11F00 		sub	r0, r3, #31
 572 006c 8854     		strb	r0, [r1, r2]
  39:txsubsystem.c **** 	}
 573              		.loc 1 39 0 discriminator 3
 574 006e 02F11000 		add	r0, r2, #16
 575 0072 0133     		adds	r3, r3, #1
 576 0074 0B54     		strb	r3, [r1, r0]
  36:txsubsystem.c **** 		
 577              		.loc 1 36 0 discriminator 3
 578 0076 0132     		adds	r2, r2, #1
 579              	.LVL20:
 580              	.L47:
  36:txsubsystem.c **** 		
 581              		.loc 1 36 0 is_stmt 0 discriminator 1
 582 0078 0F2A     		cmp	r2, #15
 583 007a F2DD     		ble	.L48
  44:txsubsystem.c **** 	ISR_SYMB_Enable();
 584              		.loc 1 44 0 is_stmt 1
 585 007c 1F48     		ldr	r0, .L50+20
 586 007e FFF7FEFF 		bl	ISR_SYMB_StartEx
 587              	.LVL21:
  45:txsubsystem.c **** 	
 588              		.loc 1 45 0
 589 0082 FFF7FEFF 		bl	ISR_SYMB_Enable
 590              	.LVL22:
  47:txsubsystem.c **** 	ISR_INJ_Enable();
 591              		.loc 1 47 0
 592 0086 1E48     		ldr	r0, .L50+24
 593 0088 FFF7FEFF 		bl	ISR_INJ_StartEx
 594              	.LVL23:
  48:txsubsystem.c **** 	
 595              		.loc 1 48 0
 596 008c FFF7FEFF 		bl	ISR_INJ_Enable
 597              	.LVL24:
  50:txsubsystem.c **** 	ISR_INJ_CHECK_Enable();
 598              		.loc 1 50 0
 599 0090 1C48     		ldr	r0, .L50+28
 600 0092 FFF7FEFF 		bl	ISR_INJ_CHECK_StartEx
 601              	.LVL25:
  51:txsubsystem.c **** 	
 602              		.loc 1 51 0
 603 0096 FFF7FEFF 		bl	ISR_INJ_CHECK_Enable
 604              	.LVL26:
  53:txsubsystem.c **** 	ISR_TX_DONE_Enable();
ARM GAS  C:\Users\dr\AppData\Local\Temp\cc0dz7FY.s 			page 16


 605              		.loc 1 53 0
 606 009a 1B48     		ldr	r0, .L50+32
 607 009c FFF7FEFF 		bl	ISR_TX_DONE_StartEx
 608              	.LVL27:
  54:txsubsystem.c **** 	
 609              		.loc 1 54 0
 610 00a0 FFF7FEFF 		bl	ISR_TX_DONE_Enable
 611              	.LVL28:
  57:txsubsystem.c **** 	    HI16(DMA_HAM2SER_SRC_BASE), HI16(DMA_HAM2SER_DST_BASE));
 612              		.loc 1 57 0
 613 00a4 4FF48043 		mov	r3, #16384
 614 00a8 1A46     		mov	r2, r3
 615 00aa 0121     		movs	r1, #1
 616 00ac 0846     		mov	r0, r1
 617 00ae FFF7FEFF 		bl	DMA_HAM2SER_DmaInitialize
 618              	.LVL29:
 619 00b2 164C     		ldr	r4, .L50+36
 620 00b4 2070     		strb	r0, [r4]
  59:txsubsystem.c **** 	CyDmaTdSetConfiguration(DMA_HAM2SER_TD[0], 1, DMA_HAM2SER_TD[0], 0);
 621              		.loc 1 59 0
 622 00b6 FFF7FEFF 		bl	CyDmaTdAllocate
 623              	.LVL30:
 624 00ba 0246     		mov	r2, r0
 625 00bc 144D     		ldr	r5, .L50+40
 626 00be 2870     		strb	r0, [r5]
  60:txsubsystem.c **** 	CyDmaTdSetAddress(DMA_HAM2SER_TD[0], LO16((uint32)SREG_HAM_OUT_Status_PTR), LO16((uint32)CREG_SER_
 627              		.loc 1 60 0
 628 00c0 0023     		movs	r3, #0
 629 00c2 0121     		movs	r1, #1
 630 00c4 FFF7FEFF 		bl	CyDmaTdSetConfiguration
 631              	.LVL31:
  61:txsubsystem.c **** 	CyDmaChSetInitialTd(DMA_HAM2SER_Chan, DMA_HAM2SER_TD[0]);
 632              		.loc 1 61 0
 633 00c8 46F27552 		movw	r2, #25973
 634 00cc 46F26241 		movw	r1, #25698
 635 00d0 2878     		ldrb	r0, [r5]	@ zero_extendqisi2
 636 00d2 FFF7FEFF 		bl	CyDmaTdSetAddress
 637              	.LVL32:
  62:txsubsystem.c **** 	CyDmaChEnable(DMA_HAM2SER_Chan, 1);
 638              		.loc 1 62 0
 639 00d6 2978     		ldrb	r1, [r5]	@ zero_extendqisi2
 640 00d8 2078     		ldrb	r0, [r4]	@ zero_extendqisi2
 641 00da FFF7FEFF 		bl	CyDmaChSetInitialTd
 642              	.LVL33:
  63:txsubsystem.c **** 	
 643              		.loc 1 63 0
 644 00de 0121     		movs	r1, #1
 645 00e0 2078     		ldrb	r0, [r4]	@ zero_extendqisi2
 646 00e2 FFF7FEFF 		bl	CyDmaChEnable
 647              	.LVL34:
 648 00e6 38BD     		pop	{r3, r4, r5, pc}
 649              	.L51:
 650              		.align	2
 651              	.L50:
 652 00e8 00000000 		.word	m2Track
 653 00ec 00000000 		.word	m4Track
 654 00f0 00000000 		.word	m8Track
ARM GAS  C:\Users\dr\AppData\Local\Temp\cc0dz7FY.s 			page 17


 655 00f4 00000000 		.word	m16Track
 656 00f8 00000000 		.word	m32Track
 657 00fc 00000000 		.word	ISR_SYMB_h
 658 0100 00000000 		.word	ISR_INJ_h
 659 0104 00000000 		.word	ISR_INJ_CHECK_h
 660 0108 00000000 		.word	ISR_TX_DONE_h
 661 010c 00000000 		.word	DMA_HAM2SER_Chan
 662 0110 00000000 		.word	DMA_HAM2SER_TD
 663              		.cfi_endproc
 664              	.LFE63:
 665              		.size	INIT_TX_SUBSYSTEM, .-INIT_TX_SUBSYSTEM
 666              		.comm	symCnt,1,1
 667              		.comm	symTx,31,4
 668              		.comm	lMask,1,1
 669              		.comm	symbolNext,1,1
 670              		.comm	trackSum,2,2
 671              		.comm	m32Track,32,4
 672              		.comm	m16Track,16,4
 673              		.comm	m8Track,8,4
 674              		.comm	m4Track,4,4
 675              		.comm	m2Track,2,4
 676              		.comm	m32,32,4
 677              		.comm	m16,16,4
 678              		.comm	m8,8,4
 679              		.comm	m4,4,4
 680              		.comm	m2,2,4
 681              		.comm	modLevel,1,1
 682              		.comm	FLAG_TX_DONE,1,1
 683              		.comm	FLAG_TX_EVENT,1,1
 684              		.comm	DMA_HAM2SER_TD,1,4
 685              		.comm	DMA_HAM2SER_Chan,1,1
 686              		.comm	sh_fifo,1,1
 687              		.comm	sh_load,1,1
 688              		.comm	sh_test,1,1
 689              		.global	colValH
 690              		.global	H
 691              		.comm	headCnt,1,1
 692              		.comm	rxDst,1,1
 693              		.comm	rxSrc,1,1
 694              		.comm	rxTrackSum,2,2
 695              		.comm	rxSize,2,2
 696              		.comm	rxModLevel,1,1
 697              		.comm	adcMean,2,2
 698              		.comm	adcSum,2,2
 699              		.comm	adcValue,6,4
 700              		.global	hamWordCheck
 701              		.comm	packets4,65,4
 702              		.comm	DMA_PAY_TD,1,4
 703              		.comm	DMA_PAY_Chan,1,1
 704              		.comm	dimLevel,1,1
 705              		.comm	routingTable,30,4
 706              		.comm	deviceAddress,1,1
 707              		.comm	deviceID,8,4
 708              		.comm	i2cWord,27,4
 709              		.comm	i2cRun,1,1
 710              		.comm	i2cData,1,1
 711              		.comm	i2cInstr,1,1
ARM GAS  C:\Users\dr\AppData\Local\Temp\cc0dz7FY.s 			page 18


 712              		.comm	i2cAddr,1,1
 713              		.comm	i2cBuf,27,4
 714              		.comm	c,1,1
 715              		.comm	i2cSda,1,1
 716              		.comm	i2cClk,1,1
 717              		.comm	i2cStart,1,1
 718              		.comm	sum,4,4
 719              		.comm	signalMean,2,2
 720              		.comm	send15Cont,1,1
 721              		.comm	stepSize,1,1
 722              		.comm	uart_type,1,1
 723              		.comm	pre,1,1
 724              		.comm	del,1,1
 725              		.comm	buffer_uart,64,4
 726              		.comm	test16,2,2
 727              		.comm	test8,1,1
 728              		.comm	serialTest,2,4
 729              		.comm	levels_82,4,4
 730              		.comm	levels_15,4,4
 731              		.comm	levels_48,16,4
 732              		.comm	i,4,4
 733              		.comm	FLAG_SER_TX_INIT,1,1
 734              		.comm	FLAG_SER_EVENT,1,1
 735              		.comm	bufferUart,64,4
 736              		.data
 737              		.align	2
 738              		.type	colValH, %object
 739              		.size	colValH, 7
 740              	colValH:
 741 0000 07       		.byte	7
 742 0001 06       		.byte	6
 743 0002 05       		.byte	5
 744 0003 03       		.byte	3
 745 0004 04       		.byte	4
 746 0005 02       		.byte	2
 747 0006 01       		.byte	1
 748 0007 00       		.space	1
 749              		.type	H, %object
 750              		.size	H, 21
 751              	H:
 752 0008 01       		.byte	1
 753 0009 01       		.byte	1
 754 000a 01       		.byte	1
 755 000b 00       		.byte	0
 756 000c 01       		.byte	1
 757 000d 00       		.byte	0
 758 000e 00       		.byte	0
 759 000f 01       		.byte	1
 760 0010 01       		.byte	1
 761 0011 00       		.byte	0
 762 0012 01       		.byte	1
 763 0013 00       		.byte	0
 764 0014 01       		.byte	1
 765 0015 00       		.byte	0
 766 0016 01       		.byte	1
 767 0017 00       		.byte	0
 768 0018 01       		.byte	1
ARM GAS  C:\Users\dr\AppData\Local\Temp\cc0dz7FY.s 			page 19


 769 0019 01       		.byte	1
 770 001a 00       		.byte	0
 771 001b 00       		.byte	0
 772 001c 01       		.byte	1
 773 001d 000000   		.space	3
 774              		.type	hamWordCheck, %object
 775              		.size	hamWordCheck, 16
 776              	hamWordCheck:
 777 0020 00       		.byte	0
 778 0021 47       		.byte	71
 779 0022 26       		.byte	38
 780 0023 61       		.byte	97
 781 0024 15       		.byte	21
 782 0025 52       		.byte	82
 783 0026 33       		.byte	51
 784 0027 74       		.byte	116
 785 0028 11       		.byte	17
 786 0029 4C       		.byte	76
 787 002a 2D       		.byte	45
 788 002b 6A       		.byte	106
 789 002c 1E       		.byte	30
 790 002d 59       		.byte	89
 791 002e 38       		.byte	56
 792 002f 3F       		.byte	63
 793              		.text
 794              	.Letext0:
 795              		.file 2 "c:\\program files (x86)\\cypress\\psoc creator\\4.1\\psoc creator\\import\\gnu\\arm\\5.4.
 796              		.file 3 "c:\\program files (x86)\\cypress\\psoc creator\\4.1\\psoc creator\\import\\gnu\\arm\\5.4.
 797              		.file 4 "Generated_Source\\PSoC5/cytypes.h"
 798              		.file 5 "dlm.h"
 799              		.file 6 "packetman.h"
 800              		.file 7 "Generated_Source\\PSoC5/core_cm3.h"
 801              		.file 8 "serial.h"
 802              		.file 9 "dimmingcontrol.h"
 803              		.file 10 "main.h"
 804              		.file 11 "rxsubsystem.h"
 805              		.file 12 "txsubsystem.h"
 806              		.file 13 "Generated_Source\\PSoC5/SREG_SYMB.h"
 807              		.file 14 "Generated_Source\\PSoC5/ISR_SYMB.h"
 808              		.file 15 "Generated_Source\\PSoC5/ISR_INJ_CHECK.h"
 809              		.file 16 "Generated_Source\\PSoC5/DMA_HAM2SER_dma.h"
 810              		.file 17 "Generated_Source\\PSoC5/CYDMAC.H"