ARM GAS  C:\Users\dr\AppData\Local\Temp\ccLnVm5r.s 			page 1


   1              		.syntax unified
   2              		.cpu cortex-m3
   3              		.fpu softvfp
   4              		.eabi_attribute 20, 1
   5              		.eabi_attribute 21, 1
   6              		.eabi_attribute 23, 3
   7              		.eabi_attribute 24, 1
   8              		.eabi_attribute 25, 1
   9              		.eabi_attribute 26, 1
  10              		.eabi_attribute 30, 1
  11              		.eabi_attribute 34, 1
  12              		.eabi_attribute 18, 4
  13              		.thumb
  14              		.syntax unified
  15              		.file	"COMP_SLOW.c"
  16              		.text
  17              	.Ltext0:
  18              		.cfi_sections	.debug_frame
  19              		.section	.text.COMP_SLOW_trimAdjust,"ax",%progbits
  20              		.align	2
  21              		.thumb
  22              		.thumb_func
  23              		.type	COMP_SLOW_trimAdjust, %function
  24              	COMP_SLOW_trimAdjust:
  25              	.LFB6:
  26              		.file 1 "Generated_Source\\PSoC5\\COMP_SLOW.c"
   1:Generated_Source\PSoC5/COMP_SLOW.c **** /*******************************************************************************
   2:Generated_Source\PSoC5/COMP_SLOW.c **** * File Name: COMP_SLOW.c
   3:Generated_Source\PSoC5/COMP_SLOW.c **** * Version 2.0
   4:Generated_Source\PSoC5/COMP_SLOW.c **** *
   5:Generated_Source\PSoC5/COMP_SLOW.c **** * Description:
   6:Generated_Source\PSoC5/COMP_SLOW.c **** *  This file provides the source code to the API for the Comparator component
   7:Generated_Source\PSoC5/COMP_SLOW.c **** *
   8:Generated_Source\PSoC5/COMP_SLOW.c **** * Note:
   9:Generated_Source\PSoC5/COMP_SLOW.c **** *  None
  10:Generated_Source\PSoC5/COMP_SLOW.c **** *
  11:Generated_Source\PSoC5/COMP_SLOW.c **** ********************************************************************************
  12:Generated_Source\PSoC5/COMP_SLOW.c **** * Copyright 2008-2012, Cypress Semiconductor Corporation.  All rights reserved.
  13:Generated_Source\PSoC5/COMP_SLOW.c **** * You may use this file only in accordance with the license, terms, conditions, 
  14:Generated_Source\PSoC5/COMP_SLOW.c **** * disclaimers, and limitations in the end user license agreement accompanying 
  15:Generated_Source\PSoC5/COMP_SLOW.c **** * the software package with which this file was provided.
  16:Generated_Source\PSoC5/COMP_SLOW.c **** *******************************************************************************/
  17:Generated_Source\PSoC5/COMP_SLOW.c **** 
  18:Generated_Source\PSoC5/COMP_SLOW.c **** #include "COMP_SLOW.h"
  19:Generated_Source\PSoC5/COMP_SLOW.c **** 
  20:Generated_Source\PSoC5/COMP_SLOW.c **** uint8 COMP_SLOW_initVar = 0u;
  21:Generated_Source\PSoC5/COMP_SLOW.c **** 
  22:Generated_Source\PSoC5/COMP_SLOW.c **** /* Internal functions definitoin */
  23:Generated_Source\PSoC5/COMP_SLOW.c **** static void COMP_SLOW_trimAdjust(uint8 nibble) ;
  24:Generated_Source\PSoC5/COMP_SLOW.c **** 
  25:Generated_Source\PSoC5/COMP_SLOW.c **** /* static COMP_SLOW_backupStruct  COMP_SLOW_backup; */
  26:Generated_Source\PSoC5/COMP_SLOW.c **** #if (CY_PSOC5A)
  27:Generated_Source\PSoC5/COMP_SLOW.c ****     static COMP_SLOW_LOWPOWER_BACKUP_STRUCT  COMP_SLOW_lowPowerBackup;
  28:Generated_Source\PSoC5/COMP_SLOW.c **** #endif /* CY_PSOC5A */
  29:Generated_Source\PSoC5/COMP_SLOW.c **** 
  30:Generated_Source\PSoC5/COMP_SLOW.c **** /* variable to decide whether or not to restore the control register in 
  31:Generated_Source\PSoC5/COMP_SLOW.c ****    Enable() API for PSoC5A only */
ARM GAS  C:\Users\dr\AppData\Local\Temp\ccLnVm5r.s 			page 2


  32:Generated_Source\PSoC5/COMP_SLOW.c **** #if (CY_PSOC5A)
  33:Generated_Source\PSoC5/COMP_SLOW.c ****     static uint8 COMP_SLOW_restoreReg = 0u;
  34:Generated_Source\PSoC5/COMP_SLOW.c **** #endif /* CY_PSOC5A */
  35:Generated_Source\PSoC5/COMP_SLOW.c **** 
  36:Generated_Source\PSoC5/COMP_SLOW.c **** 
  37:Generated_Source\PSoC5/COMP_SLOW.c **** /*******************************************************************************
  38:Generated_Source\PSoC5/COMP_SLOW.c **** * Function Name: COMP_SLOW_Init
  39:Generated_Source\PSoC5/COMP_SLOW.c **** ********************************************************************************
  40:Generated_Source\PSoC5/COMP_SLOW.c **** *
  41:Generated_Source\PSoC5/COMP_SLOW.c **** * Summary:
  42:Generated_Source\PSoC5/COMP_SLOW.c **** *  Initialize to the schematic state
  43:Generated_Source\PSoC5/COMP_SLOW.c **** * 
  44:Generated_Source\PSoC5/COMP_SLOW.c **** * Parameters:
  45:Generated_Source\PSoC5/COMP_SLOW.c **** *  void
  46:Generated_Source\PSoC5/COMP_SLOW.c **** *
  47:Generated_Source\PSoC5/COMP_SLOW.c **** * Return:
  48:Generated_Source\PSoC5/COMP_SLOW.c **** *  void
  49:Generated_Source\PSoC5/COMP_SLOW.c **** *
  50:Generated_Source\PSoC5/COMP_SLOW.c **** *******************************************************************************/
  51:Generated_Source\PSoC5/COMP_SLOW.c **** void COMP_SLOW_Init(void) 
  52:Generated_Source\PSoC5/COMP_SLOW.c **** {
  53:Generated_Source\PSoC5/COMP_SLOW.c ****     /* Set default speed/power */
  54:Generated_Source\PSoC5/COMP_SLOW.c ****     COMP_SLOW_SetSpeed(COMP_SLOW_DEFAULT_SPEED);
  55:Generated_Source\PSoC5/COMP_SLOW.c **** 
  56:Generated_Source\PSoC5/COMP_SLOW.c ****     /* Set default Hysteresis */
  57:Generated_Source\PSoC5/COMP_SLOW.c ****     #if ( COMP_SLOW_DEFAULT_HYSTERESIS == 0u )
  58:Generated_Source\PSoC5/COMP_SLOW.c ****         COMP_SLOW_CR |= COMP_SLOW_HYST_OFF;
  59:Generated_Source\PSoC5/COMP_SLOW.c ****     #else
  60:Generated_Source\PSoC5/COMP_SLOW.c ****         COMP_SLOW_CR &= (uint8)(~COMP_SLOW_HYST_OFF);
  61:Generated_Source\PSoC5/COMP_SLOW.c ****     #endif /* COMP_SLOW_DEFAULT_HYSTERESIS == 0u */
  62:Generated_Source\PSoC5/COMP_SLOW.c ****     /* Power down override feature is not supported for PSoC5A. */
  63:Generated_Source\PSoC5/COMP_SLOW.c ****     #if (CY_PSOC3 || CY_PSOC5LP)
  64:Generated_Source\PSoC5/COMP_SLOW.c ****         /* Set default Power Down Override */
  65:Generated_Source\PSoC5/COMP_SLOW.c ****         #if ( COMP_SLOW_DEFAULT_PWRDWN_OVRD == 0u )
  66:Generated_Source\PSoC5/COMP_SLOW.c ****             COMP_SLOW_CR &= (uint8)(~COMP_SLOW_PWRDWN_OVRD);
  67:Generated_Source\PSoC5/COMP_SLOW.c ****         #else 
  68:Generated_Source\PSoC5/COMP_SLOW.c ****             COMP_SLOW_CR |= COMP_SLOW_PWRDWN_OVRD;
  69:Generated_Source\PSoC5/COMP_SLOW.c ****         #endif /* COMP_SLOW_DEFAULT_PWRDWN_OVRD == 0u */
  70:Generated_Source\PSoC5/COMP_SLOW.c ****     #endif /* CY_PSOC3 || CY_PSOC5LP */
  71:Generated_Source\PSoC5/COMP_SLOW.c ****     
  72:Generated_Source\PSoC5/COMP_SLOW.c ****     /* Set mux always on logic */
  73:Generated_Source\PSoC5/COMP_SLOW.c ****     COMP_SLOW_CR |= COMP_SLOW_MX_AO;
  74:Generated_Source\PSoC5/COMP_SLOW.c **** 
  75:Generated_Source\PSoC5/COMP_SLOW.c ****     /* Set default sync */
  76:Generated_Source\PSoC5/COMP_SLOW.c ****     COMP_SLOW_CLK &= (uint8)(~COMP_SLOW_SYNCCLK_MASK);
  77:Generated_Source\PSoC5/COMP_SLOW.c ****     #if ( COMP_SLOW_DEFAULT_BYPASS_SYNC == 0u )
  78:Generated_Source\PSoC5/COMP_SLOW.c ****         COMP_SLOW_CLK |= COMP_SLOW_SYNC_CLK_EN;
  79:Generated_Source\PSoC5/COMP_SLOW.c ****     #else
  80:Generated_Source\PSoC5/COMP_SLOW.c ****         COMP_SLOW_CLK |= COMP_SLOW_BYPASS_SYNC;
  81:Generated_Source\PSoC5/COMP_SLOW.c ****     #endif /* COMP_SLOW_DEFAULT_BYPASS_SYNC == 0u */
  82:Generated_Source\PSoC5/COMP_SLOW.c **** }
  83:Generated_Source\PSoC5/COMP_SLOW.c **** 
  84:Generated_Source\PSoC5/COMP_SLOW.c **** 
  85:Generated_Source\PSoC5/COMP_SLOW.c **** /*******************************************************************************
  86:Generated_Source\PSoC5/COMP_SLOW.c **** * Function Name: COMP_SLOW_Enable
  87:Generated_Source\PSoC5/COMP_SLOW.c **** ********************************************************************************
  88:Generated_Source\PSoC5/COMP_SLOW.c **** *
ARM GAS  C:\Users\dr\AppData\Local\Temp\ccLnVm5r.s 			page 3


  89:Generated_Source\PSoC5/COMP_SLOW.c **** * Summary:
  90:Generated_Source\PSoC5/COMP_SLOW.c **** *  Enable the Comparator
  91:Generated_Source\PSoC5/COMP_SLOW.c **** * 
  92:Generated_Source\PSoC5/COMP_SLOW.c **** * Parameters:
  93:Generated_Source\PSoC5/COMP_SLOW.c **** *  void
  94:Generated_Source\PSoC5/COMP_SLOW.c **** *
  95:Generated_Source\PSoC5/COMP_SLOW.c **** * Return:
  96:Generated_Source\PSoC5/COMP_SLOW.c **** *  void
  97:Generated_Source\PSoC5/COMP_SLOW.c **** *
  98:Generated_Source\PSoC5/COMP_SLOW.c **** *******************************************************************************/
  99:Generated_Source\PSoC5/COMP_SLOW.c **** void COMP_SLOW_Enable(void) 
 100:Generated_Source\PSoC5/COMP_SLOW.c **** {
 101:Generated_Source\PSoC5/COMP_SLOW.c ****     COMP_SLOW_PWRMGR |= COMP_SLOW_ACT_PWR_EN;
 102:Generated_Source\PSoC5/COMP_SLOW.c ****     COMP_SLOW_STBY_PWRMGR |= COMP_SLOW_STBY_PWR_EN;
 103:Generated_Source\PSoC5/COMP_SLOW.c ****      
 104:Generated_Source\PSoC5/COMP_SLOW.c ****      /* This is to restore the value of register CR which is saved 
 105:Generated_Source\PSoC5/COMP_SLOW.c ****     in prior to the modification in stop() API */
 106:Generated_Source\PSoC5/COMP_SLOW.c ****     #if (CY_PSOC5A)
 107:Generated_Source\PSoC5/COMP_SLOW.c ****         if(COMP_SLOW_restoreReg == 1u)
 108:Generated_Source\PSoC5/COMP_SLOW.c ****         {
 109:Generated_Source\PSoC5/COMP_SLOW.c ****             COMP_SLOW_CR = COMP_SLOW_lowPowerBackup.compCRReg;
 110:Generated_Source\PSoC5/COMP_SLOW.c **** 
 111:Generated_Source\PSoC5/COMP_SLOW.c ****             /* Clear the flag */
 112:Generated_Source\PSoC5/COMP_SLOW.c ****             COMP_SLOW_restoreReg = 0u;
 113:Generated_Source\PSoC5/COMP_SLOW.c ****         }
 114:Generated_Source\PSoC5/COMP_SLOW.c ****     #endif /* CY_PSOC5A */
 115:Generated_Source\PSoC5/COMP_SLOW.c **** }
 116:Generated_Source\PSoC5/COMP_SLOW.c **** 
 117:Generated_Source\PSoC5/COMP_SLOW.c **** 
 118:Generated_Source\PSoC5/COMP_SLOW.c **** /*******************************************************************************
 119:Generated_Source\PSoC5/COMP_SLOW.c **** * Function Name: COMP_SLOW_Start
 120:Generated_Source\PSoC5/COMP_SLOW.c **** ********************************************************************************
 121:Generated_Source\PSoC5/COMP_SLOW.c **** *
 122:Generated_Source\PSoC5/COMP_SLOW.c **** * Summary:
 123:Generated_Source\PSoC5/COMP_SLOW.c **** *  The start function initializes the Analog Comparator with the default values.
 124:Generated_Source\PSoC5/COMP_SLOW.c **** *
 125:Generated_Source\PSoC5/COMP_SLOW.c **** * Parameters:
 126:Generated_Source\PSoC5/COMP_SLOW.c **** *  void
 127:Generated_Source\PSoC5/COMP_SLOW.c **** *
 128:Generated_Source\PSoC5/COMP_SLOW.c **** * Return:
 129:Generated_Source\PSoC5/COMP_SLOW.c **** *  void 
 130:Generated_Source\PSoC5/COMP_SLOW.c **** *
 131:Generated_Source\PSoC5/COMP_SLOW.c **** * Global variables:
 132:Generated_Source\PSoC5/COMP_SLOW.c **** *  COMP_SLOW_initVar: Is modified when this function is called for the 
 133:Generated_Source\PSoC5/COMP_SLOW.c **** *   first time. Is used to ensure that initialization happens only once.
 134:Generated_Source\PSoC5/COMP_SLOW.c **** *  
 135:Generated_Source\PSoC5/COMP_SLOW.c **** *******************************************************************************/
 136:Generated_Source\PSoC5/COMP_SLOW.c **** void COMP_SLOW_Start(void) 
 137:Generated_Source\PSoC5/COMP_SLOW.c **** {
 138:Generated_Source\PSoC5/COMP_SLOW.c **** 
 139:Generated_Source\PSoC5/COMP_SLOW.c ****     if ( COMP_SLOW_initVar == 0u )
 140:Generated_Source\PSoC5/COMP_SLOW.c ****     {
 141:Generated_Source\PSoC5/COMP_SLOW.c ****         COMP_SLOW_Init();
 142:Generated_Source\PSoC5/COMP_SLOW.c ****         
 143:Generated_Source\PSoC5/COMP_SLOW.c ****         COMP_SLOW_initVar = 1u;
 144:Generated_Source\PSoC5/COMP_SLOW.c ****     }   
 145:Generated_Source\PSoC5/COMP_SLOW.c **** 
ARM GAS  C:\Users\dr\AppData\Local\Temp\ccLnVm5r.s 			page 4


 146:Generated_Source\PSoC5/COMP_SLOW.c ****     /* Enable power to comparator */
 147:Generated_Source\PSoC5/COMP_SLOW.c ****     COMP_SLOW_Enable();    
 148:Generated_Source\PSoC5/COMP_SLOW.c **** }
 149:Generated_Source\PSoC5/COMP_SLOW.c **** 
 150:Generated_Source\PSoC5/COMP_SLOW.c **** 
 151:Generated_Source\PSoC5/COMP_SLOW.c **** /*******************************************************************************
 152:Generated_Source\PSoC5/COMP_SLOW.c **** * Function Name: COMP_SLOW_Stop
 153:Generated_Source\PSoC5/COMP_SLOW.c **** ********************************************************************************
 154:Generated_Source\PSoC5/COMP_SLOW.c **** *
 155:Generated_Source\PSoC5/COMP_SLOW.c **** * Summary:
 156:Generated_Source\PSoC5/COMP_SLOW.c **** *  Powers down amplifier to lowest power state.
 157:Generated_Source\PSoC5/COMP_SLOW.c **** *
 158:Generated_Source\PSoC5/COMP_SLOW.c **** * Parameters:
 159:Generated_Source\PSoC5/COMP_SLOW.c **** *  void
 160:Generated_Source\PSoC5/COMP_SLOW.c **** *
 161:Generated_Source\PSoC5/COMP_SLOW.c **** * Return:
 162:Generated_Source\PSoC5/COMP_SLOW.c **** *  void
 163:Generated_Source\PSoC5/COMP_SLOW.c **** *
 164:Generated_Source\PSoC5/COMP_SLOW.c **** *******************************************************************************/
 165:Generated_Source\PSoC5/COMP_SLOW.c **** void COMP_SLOW_Stop(void) 
 166:Generated_Source\PSoC5/COMP_SLOW.c **** {
 167:Generated_Source\PSoC5/COMP_SLOW.c ****     /* Disable power to comparator */
 168:Generated_Source\PSoC5/COMP_SLOW.c ****     COMP_SLOW_PWRMGR &= (uint8)(~COMP_SLOW_ACT_PWR_EN);
 169:Generated_Source\PSoC5/COMP_SLOW.c ****     COMP_SLOW_STBY_PWRMGR &= (uint8)(~COMP_SLOW_STBY_PWR_EN);
 170:Generated_Source\PSoC5/COMP_SLOW.c ****     
 171:Generated_Source\PSoC5/COMP_SLOW.c ****     #if (CY_PSOC5A)
 172:Generated_Source\PSoC5/COMP_SLOW.c ****         /* Enable the variable */
 173:Generated_Source\PSoC5/COMP_SLOW.c ****         COMP_SLOW_restoreReg = 1u;
 174:Generated_Source\PSoC5/COMP_SLOW.c **** 
 175:Generated_Source\PSoC5/COMP_SLOW.c ****         /* Save the control register before clearing it */
 176:Generated_Source\PSoC5/COMP_SLOW.c ****         COMP_SLOW_lowPowerBackup.compCRReg = COMP_SLOW_CR;
 177:Generated_Source\PSoC5/COMP_SLOW.c ****         COMP_SLOW_CR = COMP_SLOW_COMP_REG_CLR;
 178:Generated_Source\PSoC5/COMP_SLOW.c ****     #endif /* CY_PSOC5A */
 179:Generated_Source\PSoC5/COMP_SLOW.c **** }
 180:Generated_Source\PSoC5/COMP_SLOW.c **** 
 181:Generated_Source\PSoC5/COMP_SLOW.c **** 
 182:Generated_Source\PSoC5/COMP_SLOW.c **** /*******************************************************************************
 183:Generated_Source\PSoC5/COMP_SLOW.c **** * Function Name: COMP_SLOW_SetSpeed
 184:Generated_Source\PSoC5/COMP_SLOW.c **** ********************************************************************************
 185:Generated_Source\PSoC5/COMP_SLOW.c **** *
 186:Generated_Source\PSoC5/COMP_SLOW.c **** * Summary:
 187:Generated_Source\PSoC5/COMP_SLOW.c **** *  This function sets the speed of the Analog Comparator. The faster the speed
 188:Generated_Source\PSoC5/COMP_SLOW.c **** *  the more power that is used.
 189:Generated_Source\PSoC5/COMP_SLOW.c **** *
 190:Generated_Source\PSoC5/COMP_SLOW.c **** * Parameters:
 191:Generated_Source\PSoC5/COMP_SLOW.c **** *  speed: (uint8) Sets operation mode of Comparator
 192:Generated_Source\PSoC5/COMP_SLOW.c **** *
 193:Generated_Source\PSoC5/COMP_SLOW.c **** * Return:
 194:Generated_Source\PSoC5/COMP_SLOW.c **** *  void
 195:Generated_Source\PSoC5/COMP_SLOW.c **** *
 196:Generated_Source\PSoC5/COMP_SLOW.c **** *******************************************************************************/
 197:Generated_Source\PSoC5/COMP_SLOW.c **** void COMP_SLOW_SetSpeed(uint8 speed) 
 198:Generated_Source\PSoC5/COMP_SLOW.c **** {
 199:Generated_Source\PSoC5/COMP_SLOW.c ****     /* Clear and Set power level */    
 200:Generated_Source\PSoC5/COMP_SLOW.c ****     COMP_SLOW_CR = (COMP_SLOW_CR & (uint8)(~COMP_SLOW_PWR_MODE_MASK)) |
 201:Generated_Source\PSoC5/COMP_SLOW.c ****                            (speed & COMP_SLOW_PWR_MODE_MASK);
 202:Generated_Source\PSoC5/COMP_SLOW.c **** 
ARM GAS  C:\Users\dr\AppData\Local\Temp\ccLnVm5r.s 			page 5


 203:Generated_Source\PSoC5/COMP_SLOW.c ****     /* Set trim value for high speed comparator */
 204:Generated_Source\PSoC5/COMP_SLOW.c ****     if(speed == COMP_SLOW_HIGHSPEED)
 205:Generated_Source\PSoC5/COMP_SLOW.c ****     {
 206:Generated_Source\PSoC5/COMP_SLOW.c ****         /* PSoC5A */
 207:Generated_Source\PSoC5/COMP_SLOW.c ****         #if (CY_PSOC5A)
 208:Generated_Source\PSoC5/COMP_SLOW.c ****             COMP_SLOW_TR = COMP_SLOW_HS_TRIM_TR0;
 209:Generated_Source\PSoC5/COMP_SLOW.c ****         #endif /* CY_PSOC5A */
 210:Generated_Source\PSoC5/COMP_SLOW.c ****         
 211:Generated_Source\PSoC5/COMP_SLOW.c ****         /* PSoC3, PSoC5LP or later */
 212:Generated_Source\PSoC5/COMP_SLOW.c ****         #if (CY_PSOC3 || CY_PSOC5LP) 
 213:Generated_Source\PSoC5/COMP_SLOW.c ****             COMP_SLOW_TR0 = COMP_SLOW_HS_TRIM_TR0;
 214:Generated_Source\PSoC5/COMP_SLOW.c ****             COMP_SLOW_TR1 = COMP_SLOW_HS_TRIM_TR1;
 215:Generated_Source\PSoC5/COMP_SLOW.c ****         #endif /* CY_PSOC3 || CY_PSOC5LP */
 216:Generated_Source\PSoC5/COMP_SLOW.c ****     }
 217:Generated_Source\PSoC5/COMP_SLOW.c ****     else
 218:Generated_Source\PSoC5/COMP_SLOW.c ****     {
 219:Generated_Source\PSoC5/COMP_SLOW.c ****     /* PSoC5A */
 220:Generated_Source\PSoC5/COMP_SLOW.c ****         #if (CY_PSOC5A)
 221:Generated_Source\PSoC5/COMP_SLOW.c ****             COMP_SLOW_TR = COMP_SLOW_LS_TRIM_TR0;
 222:Generated_Source\PSoC5/COMP_SLOW.c ****         #endif /* CY_PSOC5A */
 223:Generated_Source\PSoC5/COMP_SLOW.c ****         
 224:Generated_Source\PSoC5/COMP_SLOW.c ****         /* PSoC3, PSoC5LP or later */
 225:Generated_Source\PSoC5/COMP_SLOW.c ****         #if (CY_PSOC3 || CY_PSOC5LP) 
 226:Generated_Source\PSoC5/COMP_SLOW.c ****             COMP_SLOW_TR0 = COMP_SLOW_LS_TRIM_TR0;
 227:Generated_Source\PSoC5/COMP_SLOW.c ****             COMP_SLOW_TR1 = COMP_SLOW_LS_TRIM_TR1;
 228:Generated_Source\PSoC5/COMP_SLOW.c ****         #endif /* CY_PSOC3 || CY_PSOC5LP */
 229:Generated_Source\PSoC5/COMP_SLOW.c ****     }
 230:Generated_Source\PSoC5/COMP_SLOW.c **** 
 231:Generated_Source\PSoC5/COMP_SLOW.c **** }
 232:Generated_Source\PSoC5/COMP_SLOW.c **** 
 233:Generated_Source\PSoC5/COMP_SLOW.c **** 
 234:Generated_Source\PSoC5/COMP_SLOW.c **** /*******************************************************************************
 235:Generated_Source\PSoC5/COMP_SLOW.c **** * Function Name: COMP_SLOW_GetCompare
 236:Generated_Source\PSoC5/COMP_SLOW.c **** ********************************************************************************
 237:Generated_Source\PSoC5/COMP_SLOW.c **** *
 238:Generated_Source\PSoC5/COMP_SLOW.c **** * Summary:
 239:Generated_Source\PSoC5/COMP_SLOW.c **** *  This function returns the comparator output value.
 240:Generated_Source\PSoC5/COMP_SLOW.c **** *  This value is not affected by the Polarity parameter.
 241:Generated_Source\PSoC5/COMP_SLOW.c **** *  This valuea lways reflects a noninverted state.
 242:Generated_Source\PSoC5/COMP_SLOW.c **** *
 243:Generated_Source\PSoC5/COMP_SLOW.c **** * Parameters:
 244:Generated_Source\PSoC5/COMP_SLOW.c **** *   None
 245:Generated_Source\PSoC5/COMP_SLOW.c **** *
 246:Generated_Source\PSoC5/COMP_SLOW.c **** * Return:
 247:Generated_Source\PSoC5/COMP_SLOW.c **** *  (uint8)  0     - if Pos_Input less than Neg_input
 248:Generated_Source\PSoC5/COMP_SLOW.c **** *           non 0 - if Pos_Input greater than Neg_input.
 249:Generated_Source\PSoC5/COMP_SLOW.c **** *
 250:Generated_Source\PSoC5/COMP_SLOW.c **** *******************************************************************************/
 251:Generated_Source\PSoC5/COMP_SLOW.c **** uint8 COMP_SLOW_GetCompare(void) 
 252:Generated_Source\PSoC5/COMP_SLOW.c **** {
 253:Generated_Source\PSoC5/COMP_SLOW.c ****     return( COMP_SLOW_WRK & COMP_SLOW_CMP_OUT_MASK);
 254:Generated_Source\PSoC5/COMP_SLOW.c **** }
 255:Generated_Source\PSoC5/COMP_SLOW.c **** 
 256:Generated_Source\PSoC5/COMP_SLOW.c **** 
 257:Generated_Source\PSoC5/COMP_SLOW.c **** /*******************************************************************************
 258:Generated_Source\PSoC5/COMP_SLOW.c **** * Function Name: COMP_SLOW_trimAdjust
 259:Generated_Source\PSoC5/COMP_SLOW.c **** ********************************************************************************
ARM GAS  C:\Users\dr\AppData\Local\Temp\ccLnVm5r.s 			page 6


 260:Generated_Source\PSoC5/COMP_SLOW.c **** *
 261:Generated_Source\PSoC5/COMP_SLOW.c **** * Summary:
 262:Generated_Source\PSoC5/COMP_SLOW.c **** *  This function adjusts the value in the low nibble/high nibble of the Analog 
 263:Generated_Source\PSoC5/COMP_SLOW.c **** *  Comparator trim register
 264:Generated_Source\PSoC5/COMP_SLOW.c **** *
 265:Generated_Source\PSoC5/COMP_SLOW.c **** * Parameters:  
 266:Generated_Source\PSoC5/COMP_SLOW.c **** *  nibble:
 267:Generated_Source\PSoC5/COMP_SLOW.c **** *      0 -- adjusts the value in the low nibble
 268:Generated_Source\PSoC5/COMP_SLOW.c **** *      1 -- adjusts the value in the high nibble
 269:Generated_Source\PSoC5/COMP_SLOW.c **** *
 270:Generated_Source\PSoC5/COMP_SLOW.c **** * Return:
 271:Generated_Source\PSoC5/COMP_SLOW.c **** *  None
 272:Generated_Source\PSoC5/COMP_SLOW.c **** *
 273:Generated_Source\PSoC5/COMP_SLOW.c **** * Theory: 
 274:Generated_Source\PSoC5/COMP_SLOW.c **** *  Function assumes comparator block is setup for trim adjust.
 275:Generated_Source\PSoC5/COMP_SLOW.c **** *  Intended to be called from Comp_ZeroCal()
 276:Generated_Source\PSoC5/COMP_SLOW.c **** * 
 277:Generated_Source\PSoC5/COMP_SLOW.c **** * Side Effects:
 278:Generated_Source\PSoC5/COMP_SLOW.c **** *  Routine uses a course 1ms delay following each trim adjustment to allow 
 279:Generated_Source\PSoC5/COMP_SLOW.c **** *  the comparator output to respond.
 280:Generated_Source\PSoC5/COMP_SLOW.c **** *
 281:Generated_Source\PSoC5/COMP_SLOW.c **** *******************************************************************************/
 282:Generated_Source\PSoC5/COMP_SLOW.c **** static void COMP_SLOW_trimAdjust(uint8 nibble) 
 283:Generated_Source\PSoC5/COMP_SLOW.c **** {
  27              		.loc 1 283 0
  28              		.cfi_startproc
  29              		@ args = 0, pretend = 0, frame = 0
  30              		@ frame_needed = 0, uses_anonymous_args = 0
  31              	.LVL0:
  32 0000 F8B5     		push	{r3, r4, r5, r6, r7, lr}
  33              		.cfi_def_cfa_offset 24
  34              		.cfi_offset 3, -24
  35              		.cfi_offset 4, -20
  36              		.cfi_offset 5, -16
  37              		.cfi_offset 6, -12
  38              		.cfi_offset 7, -8
  39              		.cfi_offset 14, -4
 284:Generated_Source\PSoC5/COMP_SLOW.c ****     uint8 trimCnt, trimCntMax;
 285:Generated_Source\PSoC5/COMP_SLOW.c ****     uint8 cmpState;   
 286:Generated_Source\PSoC5/COMP_SLOW.c **** 
 287:Generated_Source\PSoC5/COMP_SLOW.c ****     /* get current state of comparator output */
 288:Generated_Source\PSoC5/COMP_SLOW.c ****     cmpState = COMP_SLOW_WRK & COMP_SLOW_CMP_OUT_MASK;
  40              		.loc 1 288 0
  41 0002 194B     		ldr	r3, .L12
  42 0004 1D78     		ldrb	r5, [r3]	@ zero_extendqisi2
  43 0006 05F00105 		and	r5, r5, #1
  44              	.LVL1:
 289:Generated_Source\PSoC5/COMP_SLOW.c ****     
 290:Generated_Source\PSoC5/COMP_SLOW.c ****     if (nibble == 0u)
  45              		.loc 1 290 0
  46 000a 0646     		mov	r6, r0
  47 000c 30B9     		cbnz	r0, .L2
 291:Generated_Source\PSoC5/COMP_SLOW.c ****     {    
 292:Generated_Source\PSoC5/COMP_SLOW.c ****         /* if comparator output is high, negative offset adjust is required */
 293:Generated_Source\PSoC5/COMP_SLOW.c ****         if ( cmpState != 0u )
  48              		.loc 1 293 0
  49 000e 5DB1     		cbz	r5, .L3
ARM GAS  C:\Users\dr\AppData\Local\Temp\ccLnVm5r.s 			page 7


 294:Generated_Source\PSoC5/COMP_SLOW.c ****         {
 295:Generated_Source\PSoC5/COMP_SLOW.c ****             /* PSoC5A */
 296:Generated_Source\PSoC5/COMP_SLOW.c ****             #if (CY_PSOC5A)
 297:Generated_Source\PSoC5/COMP_SLOW.c ****                 COMP_SLOW_TR |= COMP_SLOW_CMP_TRIM1_DIR;
 298:Generated_Source\PSoC5/COMP_SLOW.c ****             #endif /* CY_PSOC5A */
 299:Generated_Source\PSoC5/COMP_SLOW.c ****             
 300:Generated_Source\PSoC5/COMP_SLOW.c ****             /* PSoC3, PSoC5LP or later */
 301:Generated_Source\PSoC5/COMP_SLOW.c ****             #if (CY_PSOC3 || CY_PSOC5LP)
 302:Generated_Source\PSoC5/COMP_SLOW.c ****                 COMP_SLOW_TR0 |= COMP_SLOW_CMP_TR0_DIR;
  50              		.loc 1 302 0
  51 0010 164A     		ldr	r2, .L12+4
  52 0012 1378     		ldrb	r3, [r2]	@ zero_extendqisi2
  53 0014 43F01003 		orr	r3, r3, #16
  54 0018 1370     		strb	r3, [r2]
  55 001a 05E0     		b	.L3
  56              	.L2:
 303:Generated_Source\PSoC5/COMP_SLOW.c ****             #endif /* CY_PSOC3 || CY_PSOC5LP */
 304:Generated_Source\PSoC5/COMP_SLOW.c ****         }
 305:Generated_Source\PSoC5/COMP_SLOW.c ****     }
 306:Generated_Source\PSoC5/COMP_SLOW.c ****     else
 307:Generated_Source\PSoC5/COMP_SLOW.c ****     {
 308:Generated_Source\PSoC5/COMP_SLOW.c ****         /* if comparator output is low, positive offset adjust is required */
 309:Generated_Source\PSoC5/COMP_SLOW.c ****         if ( cmpState == 0u )
  57              		.loc 1 309 0
  58 001c 25B9     		cbnz	r5, .L3
 310:Generated_Source\PSoC5/COMP_SLOW.c ****         {
 311:Generated_Source\PSoC5/COMP_SLOW.c ****             /* PSoC5A */
 312:Generated_Source\PSoC5/COMP_SLOW.c ****             #if (CY_PSOC5A)
 313:Generated_Source\PSoC5/COMP_SLOW.c ****                 COMP_SLOW_TR |= COMP_SLOW_CMP_TRIM2_DIR; 
 314:Generated_Source\PSoC5/COMP_SLOW.c ****             #endif /* CY_PSOC5A */
 315:Generated_Source\PSoC5/COMP_SLOW.c ****             
 316:Generated_Source\PSoC5/COMP_SLOW.c ****             /* PSoC3, PSoC5LP or later */
 317:Generated_Source\PSoC5/COMP_SLOW.c ****             #if (CY_PSOC3 || CY_PSOC5LP)
 318:Generated_Source\PSoC5/COMP_SLOW.c ****                 COMP_SLOW_TR1 |= COMP_SLOW_CMP_TR1_DIR;
  59              		.loc 1 318 0
  60 001e 144A     		ldr	r2, .L12+8
  61 0020 1378     		ldrb	r3, [r2]	@ zero_extendqisi2
  62 0022 43F01003 		orr	r3, r3, #16
  63 0026 1370     		strb	r3, [r2]
  64              	.L3:
 319:Generated_Source\PSoC5/COMP_SLOW.c ****             #endif /* CY_PSOC3 || CY_PSOC5LP */
 320:Generated_Source\PSoC5/COMP_SLOW.c ****         }
 321:Generated_Source\PSoC5/COMP_SLOW.c ****     }
 322:Generated_Source\PSoC5/COMP_SLOW.c **** 
 323:Generated_Source\PSoC5/COMP_SLOW.c ****     /* Increment trim value until compare output changes state */
 324:Generated_Source\PSoC5/COMP_SLOW.c **** 	
 325:Generated_Source\PSoC5/COMP_SLOW.c ****     /* PSoC5A */
 326:Generated_Source\PSoC5/COMP_SLOW.c **** 	#if (CY_PSOC5A)
 327:Generated_Source\PSoC5/COMP_SLOW.c **** 	    trimCntMax = 7u;
 328:Generated_Source\PSoC5/COMP_SLOW.c ****     #endif
 329:Generated_Source\PSoC5/COMP_SLOW.c **** 	
 330:Generated_Source\PSoC5/COMP_SLOW.c **** 	/* PSoC3, PSoC5LP or later */
 331:Generated_Source\PSoC5/COMP_SLOW.c **** 	#if (CY_PSOC3 || CY_PSOC5LP)
 332:Generated_Source\PSoC5/COMP_SLOW.c ****     	if(nibble == 0u)
  65              		.loc 1 332 0
  66 0028 0EB9     		cbnz	r6, .L10
 333:Generated_Source\PSoC5/COMP_SLOW.c ****     	{
ARM GAS  C:\Users\dr\AppData\Local\Temp\ccLnVm5r.s 			page 8


 334:Generated_Source\PSoC5/COMP_SLOW.c ****     		trimCntMax = 15u;
  67              		.loc 1 334 0
  68 002a 0F27     		movs	r7, #15
  69 002c 00E0     		b	.L4
  70              	.L10:
 335:Generated_Source\PSoC5/COMP_SLOW.c ****     	}
 336:Generated_Source\PSoC5/COMP_SLOW.c ****     	else
 337:Generated_Source\PSoC5/COMP_SLOW.c ****     	{
 338:Generated_Source\PSoC5/COMP_SLOW.c ****     		trimCntMax = 7u;
  71              		.loc 1 338 0
  72 002e 0727     		movs	r7, #7
  73              	.L4:
  74              	.LVL2:
 339:Generated_Source\PSoC5/COMP_SLOW.c ****     	}
 340:Generated_Source\PSoC5/COMP_SLOW.c **** 	#endif
 341:Generated_Source\PSoC5/COMP_SLOW.c **** 	
 342:Generated_Source\PSoC5/COMP_SLOW.c ****     for ( trimCnt = 0u; trimCnt < trimCntMax; trimCnt++ )
  75              		.loc 1 342 0
  76 0030 0024     		movs	r4, #0
  77 0032 16E0     		b	.L5
  78              	.LVL3:
  79              	.L9:
 343:Generated_Source\PSoC5/COMP_SLOW.c **** 	{
 344:Generated_Source\PSoC5/COMP_SLOW.c ****         if (nibble == 0u)
  80              		.loc 1 344 0
  81 0034 2EB9     		cbnz	r6, .L6
 345:Generated_Source\PSoC5/COMP_SLOW.c ****         {
 346:Generated_Source\PSoC5/COMP_SLOW.c ****             /* PSoC5A */
 347:Generated_Source\PSoC5/COMP_SLOW.c ****             #if (CY_PSOC5A)
 348:Generated_Source\PSoC5/COMP_SLOW.c ****                 COMP_SLOW_TR += 1u;
 349:Generated_Source\PSoC5/COMP_SLOW.c ****             #endif /* CY_PSOC5A */
 350:Generated_Source\PSoC5/COMP_SLOW.c ****             
 351:Generated_Source\PSoC5/COMP_SLOW.c ****             /* PSoC3, PSoC5LP or later */
 352:Generated_Source\PSoC5/COMP_SLOW.c ****             #if (CY_PSOC3 || CY_PSOC5LP)
 353:Generated_Source\PSoC5/COMP_SLOW.c ****                 COMP_SLOW_TR0 += 1u;
  82              		.loc 1 353 0
  83 0036 0D4A     		ldr	r2, .L12+4
  84 0038 1378     		ldrb	r3, [r2]	@ zero_extendqisi2
  85 003a 0133     		adds	r3, r3, #1
  86 003c DBB2     		uxtb	r3, r3
  87 003e 1370     		strb	r3, [r2]
  88 0040 04E0     		b	.L7
  89              	.L6:
 354:Generated_Source\PSoC5/COMP_SLOW.c ****             #endif /* CY_PSOC3 || CY_PSOC5LP */
 355:Generated_Source\PSoC5/COMP_SLOW.c ****         }
 356:Generated_Source\PSoC5/COMP_SLOW.c ****         else
 357:Generated_Source\PSoC5/COMP_SLOW.c ****         {
 358:Generated_Source\PSoC5/COMP_SLOW.c ****             /* PSoC5A */
 359:Generated_Source\PSoC5/COMP_SLOW.c ****             #if (CY_PSOC5A)
 360:Generated_Source\PSoC5/COMP_SLOW.c ****                 COMP_SLOW_TR += 0x10u;
 361:Generated_Source\PSoC5/COMP_SLOW.c ****             #endif /* CY_PSOC5A */
 362:Generated_Source\PSoC5/COMP_SLOW.c ****             
 363:Generated_Source\PSoC5/COMP_SLOW.c ****             /* PSoC3, PSoC5LP or later */
 364:Generated_Source\PSoC5/COMP_SLOW.c ****             #if (CY_PSOC3 || CY_PSOC5LP)
 365:Generated_Source\PSoC5/COMP_SLOW.c ****                 COMP_SLOW_TR1 += 1u;
  90              		.loc 1 365 0
  91 0042 0B4A     		ldr	r2, .L12+8
ARM GAS  C:\Users\dr\AppData\Local\Temp\ccLnVm5r.s 			page 9


  92 0044 1378     		ldrb	r3, [r2]	@ zero_extendqisi2
  93 0046 0133     		adds	r3, r3, #1
  94 0048 DBB2     		uxtb	r3, r3
  95 004a 1370     		strb	r3, [r2]
  96              	.L7:
 366:Generated_Source\PSoC5/COMP_SLOW.c ****             #endif /* CY_PSOC3 || CY_PSOC5LP */
 367:Generated_Source\PSoC5/COMP_SLOW.c ****         }
 368:Generated_Source\PSoC5/COMP_SLOW.c ****         
 369:Generated_Source\PSoC5/COMP_SLOW.c ****         CyDelayUs(10u);
  97              		.loc 1 369 0
  98 004c 0A20     		movs	r0, #10
  99 004e FFF7FEFF 		bl	CyDelayUs
 100              	.LVL4:
 370:Generated_Source\PSoC5/COMP_SLOW.c ****         
 371:Generated_Source\PSoC5/COMP_SLOW.c ****         /* Check for change in comparator output */
 372:Generated_Source\PSoC5/COMP_SLOW.c ****         if ((COMP_SLOW_WRK & COMP_SLOW_CMP_OUT_MASK) != cmpState)
 101              		.loc 1 372 0
 102 0052 054B     		ldr	r3, .L12
 103 0054 1B78     		ldrb	r3, [r3]	@ zero_extendqisi2
 104 0056 03F00103 		and	r3, r3, #1
 105 005a AB42     		cmp	r3, r5
 106 005c 03D1     		bne	.L1
 342:Generated_Source\PSoC5/COMP_SLOW.c **** 	{
 107              		.loc 1 342 0 discriminator 2
 108 005e 0134     		adds	r4, r4, #1
 109              	.LVL5:
 110 0060 E4B2     		uxtb	r4, r4
 111              	.LVL6:
 112              	.L5:
 342:Generated_Source\PSoC5/COMP_SLOW.c **** 	{
 113              		.loc 1 342 0 is_stmt 0 discriminator 1
 114 0062 BC42     		cmp	r4, r7
 115 0064 E6D3     		bcc	.L9
 116              	.L1:
 117 0066 F8BD     		pop	{r3, r4, r5, r6, r7, pc}
 118              	.LVL7:
 119              	.L13:
 120              		.align	2
 121              	.L12:
 122 0068 965B0040 		.word	1073765270
 123 006c 30460040 		.word	1073759792
 124 0070 31460040 		.word	1073759793
 125              		.cfi_endproc
 126              	.LFE6:
 127              		.size	COMP_SLOW_trimAdjust, .-COMP_SLOW_trimAdjust
 128              		.section	.text.COMP_SLOW_Enable,"ax",%progbits
 129              		.align	2
 130              		.global	COMP_SLOW_Enable
 131              		.thumb
 132              		.thumb_func
 133              		.type	COMP_SLOW_Enable, %function
 134              	COMP_SLOW_Enable:
 135              	.LFB1:
 100:Generated_Source\PSoC5/COMP_SLOW.c ****     COMP_SLOW_PWRMGR |= COMP_SLOW_ACT_PWR_EN;
 136              		.loc 1 100 0 is_stmt 1
 137              		.cfi_startproc
 138              		@ args = 0, pretend = 0, frame = 0
ARM GAS  C:\Users\dr\AppData\Local\Temp\ccLnVm5r.s 			page 10


 139              		@ frame_needed = 0, uses_anonymous_args = 0
 140              		@ link register save eliminated.
 101:Generated_Source\PSoC5/COMP_SLOW.c ****     COMP_SLOW_STBY_PWRMGR |= COMP_SLOW_STBY_PWR_EN;
 141              		.loc 1 101 0
 142 0000 054A     		ldr	r2, .L15
 143 0002 1378     		ldrb	r3, [r2]	@ zero_extendqisi2
 144 0004 43F00103 		orr	r3, r3, #1
 145 0008 1370     		strb	r3, [r2]
 102:Generated_Source\PSoC5/COMP_SLOW.c ****      
 146              		.loc 1 102 0
 147 000a 1032     		adds	r2, r2, #16
 148 000c 1378     		ldrb	r3, [r2]	@ zero_extendqisi2
 149 000e 43F00103 		orr	r3, r3, #1
 150 0012 1370     		strb	r3, [r2]
 151 0014 7047     		bx	lr
 152              	.L16:
 153 0016 00BF     		.align	2
 154              	.L15:
 155 0018 A7430040 		.word	1073759143
 156              		.cfi_endproc
 157              	.LFE1:
 158              		.size	COMP_SLOW_Enable, .-COMP_SLOW_Enable
 159              		.section	.text.COMP_SLOW_Stop,"ax",%progbits
 160              		.align	2
 161              		.global	COMP_SLOW_Stop
 162              		.thumb
 163              		.thumb_func
 164              		.type	COMP_SLOW_Stop, %function
 165              	COMP_SLOW_Stop:
 166              	.LFB3:
 166:Generated_Source\PSoC5/COMP_SLOW.c ****     /* Disable power to comparator */
 167              		.loc 1 166 0
 168              		.cfi_startproc
 169              		@ args = 0, pretend = 0, frame = 0
 170              		@ frame_needed = 0, uses_anonymous_args = 0
 171              		@ link register save eliminated.
 168:Generated_Source\PSoC5/COMP_SLOW.c ****     COMP_SLOW_STBY_PWRMGR &= (uint8)(~COMP_SLOW_STBY_PWR_EN);
 172              		.loc 1 168 0
 173 0000 054A     		ldr	r2, .L18
 174 0002 1378     		ldrb	r3, [r2]	@ zero_extendqisi2
 175 0004 03F0FE03 		and	r3, r3, #254
 176 0008 1370     		strb	r3, [r2]
 169:Generated_Source\PSoC5/COMP_SLOW.c ****     
 177              		.loc 1 169 0
 178 000a 1032     		adds	r2, r2, #16
 179 000c 1378     		ldrb	r3, [r2]	@ zero_extendqisi2
 180 000e 03F0FE03 		and	r3, r3, #254
 181 0012 1370     		strb	r3, [r2]
 182 0014 7047     		bx	lr
 183              	.L19:
 184 0016 00BF     		.align	2
 185              	.L18:
 186 0018 A7430040 		.word	1073759143
 187              		.cfi_endproc
 188              	.LFE3:
 189              		.size	COMP_SLOW_Stop, .-COMP_SLOW_Stop
 190              		.section	.text.COMP_SLOW_SetSpeed,"ax",%progbits
ARM GAS  C:\Users\dr\AppData\Local\Temp\ccLnVm5r.s 			page 11


 191              		.align	2
 192              		.global	COMP_SLOW_SetSpeed
 193              		.thumb
 194              		.thumb_func
 195              		.type	COMP_SLOW_SetSpeed, %function
 196              	COMP_SLOW_SetSpeed:
 197              	.LFB4:
 198:Generated_Source\PSoC5/COMP_SLOW.c ****     /* Clear and Set power level */    
 198              		.loc 1 198 0
 199              		.cfi_startproc
 200              		@ args = 0, pretend = 0, frame = 0
 201              		@ frame_needed = 0, uses_anonymous_args = 0
 202              		@ link register save eliminated.
 203              	.LVL8:
 200:Generated_Source\PSoC5/COMP_SLOW.c ****                            (speed & COMP_SLOW_PWR_MODE_MASK);
 204              		.loc 1 200 0
 205 0000 0F49     		ldr	r1, .L23
 206 0002 0B78     		ldrb	r3, [r1]	@ zero_extendqisi2
 207 0004 03F0FC02 		and	r2, r3, #252
 208 0008 00F00303 		and	r3, r0, #3
 209 000c 1343     		orrs	r3, r3, r2
 210 000e 0B70     		strb	r3, [r1]
 204:Generated_Source\PSoC5/COMP_SLOW.c ****     {
 211              		.loc 1 204 0
 212 0010 0128     		cmp	r0, #1
 213 0012 0AD1     		bne	.L21
 213:Generated_Source\PSoC5/COMP_SLOW.c ****             COMP_SLOW_TR1 = COMP_SLOW_HS_TRIM_TR1;
 214              		.loc 1 213 0
 215 0014 0B4B     		ldr	r3, .L23+4
 216 0016 1B78     		ldrb	r3, [r3]	@ zero_extendqisi2
 217 0018 DBB2     		uxtb	r3, r3
 218 001a 0B4A     		ldr	r2, .L23+8
 219 001c 1370     		strb	r3, [r2]
 214:Generated_Source\PSoC5/COMP_SLOW.c ****         #endif /* CY_PSOC3 || CY_PSOC5LP */
 220              		.loc 1 214 0
 221 001e 0B4B     		ldr	r3, .L23+12
 222 0020 1B78     		ldrb	r3, [r3]	@ zero_extendqisi2
 223 0022 DBB2     		uxtb	r3, r3
 224 0024 0132     		adds	r2, r2, #1
 225 0026 1370     		strb	r3, [r2]
 226 0028 7047     		bx	lr
 227              	.L21:
 226:Generated_Source\PSoC5/COMP_SLOW.c ****             COMP_SLOW_TR1 = COMP_SLOW_LS_TRIM_TR1;
 228              		.loc 1 226 0
 229 002a 094B     		ldr	r3, .L23+16
 230 002c 1B78     		ldrb	r3, [r3]	@ zero_extendqisi2
 231 002e DBB2     		uxtb	r3, r3
 232 0030 054A     		ldr	r2, .L23+8
 233 0032 1370     		strb	r3, [r2]
 227:Generated_Source\PSoC5/COMP_SLOW.c ****         #endif /* CY_PSOC3 || CY_PSOC5LP */
 234              		.loc 1 227 0
 235 0034 074B     		ldr	r3, .L23+20
 236 0036 1B78     		ldrb	r3, [r3]	@ zero_extendqisi2
 237 0038 DBB2     		uxtb	r3, r3
 238 003a 0132     		adds	r2, r2, #1
 239 003c 1370     		strb	r3, [r2]
 240 003e 7047     		bx	lr
ARM GAS  C:\Users\dr\AppData\Local\Temp\ccLnVm5r.s 			page 12


 241              	.L24:
 242              		.align	2
 243              	.L23:
 244 0040 40580040 		.word	1073764416
 245 0044 10010049 		.word	1224737040
 246 0048 30460040 		.word	1073759792
 247 004c 14010049 		.word	1224737044
 248 0050 AD010049 		.word	1224737197
 249 0054 B5010049 		.word	1224737205
 250              		.cfi_endproc
 251              	.LFE4:
 252              		.size	COMP_SLOW_SetSpeed, .-COMP_SLOW_SetSpeed
 253              		.section	.text.COMP_SLOW_Init,"ax",%progbits
 254              		.align	2
 255              		.global	COMP_SLOW_Init
 256              		.thumb
 257              		.thumb_func
 258              		.type	COMP_SLOW_Init, %function
 259              	COMP_SLOW_Init:
 260              	.LFB0:
  52:Generated_Source\PSoC5/COMP_SLOW.c ****     /* Set default speed/power */
 261              		.loc 1 52 0
 262              		.cfi_startproc
 263              		@ args = 0, pretend = 0, frame = 0
 264              		@ frame_needed = 0, uses_anonymous_args = 0
 265 0000 08B5     		push	{r3, lr}
 266              		.cfi_def_cfa_offset 8
 267              		.cfi_offset 3, -8
 268              		.cfi_offset 14, -4
  54:Generated_Source\PSoC5/COMP_SLOW.c **** 
 269              		.loc 1 54 0
 270 0002 0120     		movs	r0, #1
 271 0004 FFF7FEFF 		bl	COMP_SLOW_SetSpeed
 272              	.LVL9:
  58:Generated_Source\PSoC5/COMP_SLOW.c ****     #else
 273              		.loc 1 58 0
 274 0008 0B4B     		ldr	r3, .L27
 275 000a 1A78     		ldrb	r2, [r3]	@ zero_extendqisi2
 276 000c 42F02002 		orr	r2, r2, #32
 277 0010 1A70     		strb	r2, [r3]
  66:Generated_Source\PSoC5/COMP_SLOW.c ****         #else 
 278              		.loc 1 66 0
 279 0012 1A78     		ldrb	r2, [r3]	@ zero_extendqisi2
 280 0014 02F0FB02 		and	r2, r2, #251
 281 0018 1A70     		strb	r2, [r3]
  73:Generated_Source\PSoC5/COMP_SLOW.c **** 
 282              		.loc 1 73 0
 283 001a 1A78     		ldrb	r2, [r3]	@ zero_extendqisi2
 284 001c 42F00802 		orr	r2, r2, #8
 285 0020 1A70     		strb	r2, [r3]
  76:Generated_Source\PSoC5/COMP_SLOW.c ****     #if ( COMP_SLOW_DEFAULT_BYPASS_SYNC == 0u )
 286              		.loc 1 76 0
 287 0022 03F28723 		addw	r3, r3, #647
 288 0026 1A78     		ldrb	r2, [r3]	@ zero_extendqisi2
 289 0028 02F0E702 		and	r2, r2, #231
 290 002c 1A70     		strb	r2, [r3]
  80:Generated_Source\PSoC5/COMP_SLOW.c ****     #endif /* COMP_SLOW_DEFAULT_BYPASS_SYNC == 0u */
ARM GAS  C:\Users\dr\AppData\Local\Temp\ccLnVm5r.s 			page 13


 291              		.loc 1 80 0
 292 002e 1A78     		ldrb	r2, [r3]	@ zero_extendqisi2
 293 0030 42F01002 		orr	r2, r2, #16
 294 0034 1A70     		strb	r2, [r3]
 295 0036 08BD     		pop	{r3, pc}
 296              	.L28:
 297              		.align	2
 298              	.L27:
 299 0038 40580040 		.word	1073764416
 300              		.cfi_endproc
 301              	.LFE0:
 302              		.size	COMP_SLOW_Init, .-COMP_SLOW_Init
 303              		.section	.text.COMP_SLOW_Start,"ax",%progbits
 304              		.align	2
 305              		.global	COMP_SLOW_Start
 306              		.thumb
 307              		.thumb_func
 308              		.type	COMP_SLOW_Start, %function
 309              	COMP_SLOW_Start:
 310              	.LFB2:
 137:Generated_Source\PSoC5/COMP_SLOW.c **** 
 311              		.loc 1 137 0
 312              		.cfi_startproc
 313              		@ args = 0, pretend = 0, frame = 0
 314              		@ frame_needed = 0, uses_anonymous_args = 0
 315 0000 08B5     		push	{r3, lr}
 316              		.cfi_def_cfa_offset 8
 317              		.cfi_offset 3, -8
 318              		.cfi_offset 14, -4
 139:Generated_Source\PSoC5/COMP_SLOW.c ****     {
 319              		.loc 1 139 0
 320 0002 054B     		ldr	r3, .L32
 321 0004 1B78     		ldrb	r3, [r3]	@ zero_extendqisi2
 322 0006 23B9     		cbnz	r3, .L30
 141:Generated_Source\PSoC5/COMP_SLOW.c ****         
 323              		.loc 1 141 0
 324 0008 FFF7FEFF 		bl	COMP_SLOW_Init
 325              	.LVL10:
 143:Generated_Source\PSoC5/COMP_SLOW.c ****     }   
 326              		.loc 1 143 0
 327 000c 0122     		movs	r2, #1
 328 000e 024B     		ldr	r3, .L32
 329 0010 1A70     		strb	r2, [r3]
 330              	.L30:
 147:Generated_Source\PSoC5/COMP_SLOW.c **** }
 331              		.loc 1 147 0
 332 0012 FFF7FEFF 		bl	COMP_SLOW_Enable
 333              	.LVL11:
 334 0016 08BD     		pop	{r3, pc}
 335              	.L33:
 336              		.align	2
 337              	.L32:
 338 0018 00000000 		.word	.LANCHOR0
 339              		.cfi_endproc
 340              	.LFE2:
 341              		.size	COMP_SLOW_Start, .-COMP_SLOW_Start
 342              		.section	.text.COMP_SLOW_GetCompare,"ax",%progbits
ARM GAS  C:\Users\dr\AppData\Local\Temp\ccLnVm5r.s 			page 14


 343              		.align	2
 344              		.global	COMP_SLOW_GetCompare
 345              		.thumb
 346              		.thumb_func
 347              		.type	COMP_SLOW_GetCompare, %function
 348              	COMP_SLOW_GetCompare:
 349              	.LFB5:
 252:Generated_Source\PSoC5/COMP_SLOW.c ****     return( COMP_SLOW_WRK & COMP_SLOW_CMP_OUT_MASK);
 350              		.loc 1 252 0
 351              		.cfi_startproc
 352              		@ args = 0, pretend = 0, frame = 0
 353              		@ frame_needed = 0, uses_anonymous_args = 0
 354              		@ link register save eliminated.
 253:Generated_Source\PSoC5/COMP_SLOW.c **** }
 355              		.loc 1 253 0
 356 0000 024B     		ldr	r3, .L35
 357 0002 1878     		ldrb	r0, [r3]	@ zero_extendqisi2
 254:Generated_Source\PSoC5/COMP_SLOW.c **** 
 358              		.loc 1 254 0
 359 0004 00F00100 		and	r0, r0, #1
 360 0008 7047     		bx	lr
 361              	.L36:
 362 000a 00BF     		.align	2
 363              	.L35:
 364 000c 965B0040 		.word	1073765270
 365              		.cfi_endproc
 366              	.LFE5:
 367              		.size	COMP_SLOW_GetCompare, .-COMP_SLOW_GetCompare
 368              		.section	.text.COMP_SLOW_ZeroCal,"ax",%progbits
 369              		.align	2
 370              		.global	COMP_SLOW_ZeroCal
 371              		.thumb
 372              		.thumb_func
 373              		.type	COMP_SLOW_ZeroCal, %function
 374              	COMP_SLOW_ZeroCal:
 375              	.LFB7:
 373:Generated_Source\PSoC5/COMP_SLOW.c ****         {
 374:Generated_Source\PSoC5/COMP_SLOW.c ****             break;      /* output changed state, trim phase is complete */
 375:Generated_Source\PSoC5/COMP_SLOW.c ****         }        
 376:Generated_Source\PSoC5/COMP_SLOW.c ****     }    
 377:Generated_Source\PSoC5/COMP_SLOW.c **** }
 378:Generated_Source\PSoC5/COMP_SLOW.c **** 
 379:Generated_Source\PSoC5/COMP_SLOW.c **** 
 380:Generated_Source\PSoC5/COMP_SLOW.c **** /*******************************************************************************
 381:Generated_Source\PSoC5/COMP_SLOW.c **** * Function Name: COMP_SLOW_ZeroCal
 382:Generated_Source\PSoC5/COMP_SLOW.c **** ********************************************************************************
 383:Generated_Source\PSoC5/COMP_SLOW.c **** *
 384:Generated_Source\PSoC5/COMP_SLOW.c **** * Summary:
 385:Generated_Source\PSoC5/COMP_SLOW.c **** *  This function calibrates the offset of the Analog Comparator.
 386:Generated_Source\PSoC5/COMP_SLOW.c **** *
 387:Generated_Source\PSoC5/COMP_SLOW.c **** * Parameters:
 388:Generated_Source\PSoC5/COMP_SLOW.c **** *  None
 389:Generated_Source\PSoC5/COMP_SLOW.c **** *
 390:Generated_Source\PSoC5/COMP_SLOW.c **** * Return:
 391:Generated_Source\PSoC5/COMP_SLOW.c **** *  (uint16)  value written in trim register when calibration complete.
 392:Generated_Source\PSoC5/COMP_SLOW.c **** *
 393:Generated_Source\PSoC5/COMP_SLOW.c **** * Theory: 
ARM GAS  C:\Users\dr\AppData\Local\Temp\ccLnVm5r.s 			page 15


 394:Generated_Source\PSoC5/COMP_SLOW.c **** *  This function is used to optimize the calibration for user specific voltage
 395:Generated_Source\PSoC5/COMP_SLOW.c **** *  range.  The comparator trim is adjusted to counter transistor offsets
 396:Generated_Source\PSoC5/COMP_SLOW.c **** *   - offset is defined as positive if the output transitions to high before inP
 397:Generated_Source\PSoC5/COMP_SLOW.c **** *     is greater than inN
 398:Generated_Source\PSoC5/COMP_SLOW.c **** *   - offset is defined as negative if the output transitions to high after inP
 399:Generated_Source\PSoC5/COMP_SLOW.c **** *     is greater than inP
 400:Generated_Source\PSoC5/COMP_SLOW.c **** *
 401:Generated_Source\PSoC5/COMP_SLOW.c **** *  PSoC5A
 402:Generated_Source\PSoC5/COMP_SLOW.c **** *  The Analog Comparator provides 1 byte for offset trim.  The byte contains two
 403:Generated_Source\PSoC5/COMP_SLOW.c **** *  4 bit trim fields - one is a course trim and the other allows smaller
 404:Generated_Source\PSoC5/COMP_SLOW.c **** *  offset adjustments only for slow modes.
 405:Generated_Source\PSoC5/COMP_SLOW.c **** *  - low nibble - fine trim
 406:Generated_Source\PSoC5/COMP_SLOW.c **** *  - high nibble - course trim
 407:Generated_Source\PSoC5/COMP_SLOW.c **** *  PSoC3, PSoC5LP or later
 408:Generated_Source\PSoC5/COMP_SLOW.c **** *  The Analog Comparator provides 2 bytes for offset trim.  The bytes contain two
 409:Generated_Source\PSoC5/COMP_SLOW.c **** *  5 bit trim fields - one is a course trim and the other allows smaller
 410:Generated_Source\PSoC5/COMP_SLOW.c **** *  offset adjustments only for slow modes.
 411:Generated_Source\PSoC5/COMP_SLOW.c **** *  - TR0 - fine trim
 412:Generated_Source\PSoC5/COMP_SLOW.c **** *  - TR1 - course trim
 413:Generated_Source\PSoC5/COMP_SLOW.c **** *
 414:Generated_Source\PSoC5/COMP_SLOW.c **** *  Trim algorithm is a two phase process
 415:Generated_Source\PSoC5/COMP_SLOW.c **** *  The first phase performs course offset adjustment
 416:Generated_Source\PSoC5/COMP_SLOW.c **** *  The second phase serves one of two purposes depending on the outcome of the
 417:Generated_Source\PSoC5/COMP_SLOW.c **** *  first phase
 418:Generated_Source\PSoC5/COMP_SLOW.c **** *  - if the first trim value was maxed out without a comparator output 
 419:Generated_Source\PSoC5/COMP_SLOW.c **** *    transition, more offset will be added by adjusting the second trim value.
 420:Generated_Source\PSoC5/COMP_SLOW.c **** *  - if the first trim phase resulted in a comparator output transition, the
 421:Generated_Source\PSoC5/COMP_SLOW.c **** *    second trim value will serve as fine trim (in the opposite direction)to
 422:Generated_Source\PSoC5/COMP_SLOW.c **** *    ensure the offset is < 1 mV.
 423:Generated_Source\PSoC5/COMP_SLOW.c **** *
 424:Generated_Source\PSoC5/COMP_SLOW.c **** * Trim Process:   
 425:Generated_Source\PSoC5/COMP_SLOW.c **** *  1) User applies a voltage to the negative input.  Voltage should be in the
 426:Generated_Source\PSoC5/COMP_SLOW.c **** *     comparator operating range or an average of the operating voltage range.
 427:Generated_Source\PSoC5/COMP_SLOW.c **** *  2) Clear registers associated with analog routing to the positive input.
 428:Generated_Source\PSoC5/COMP_SLOW.c **** *  3) Disable Hysteresis
 429:Generated_Source\PSoC5/COMP_SLOW.c **** *  4) Set the calibration bit to short the negative and positive inputs to
 430:Generated_Source\PSoC5/COMP_SLOW.c **** *     the users calibration voltage.
 431:Generated_Source\PSoC5/COMP_SLOW.c **** *  5) Clear the TR register  ( TR = 0x00 )
 432:Generated_Source\PSoC5/COMP_SLOW.c **** *  ** LOW MODES
 433:Generated_Source\PSoC5/COMP_SLOW.c **** *  6) Check if compare output is high, if so, set the MSb of course trim field 
 434:Generated_Source\PSoC5/COMP_SLOW.c **** *     to a 1.
 435:Generated_Source\PSoC5/COMP_SLOW.c **** *  7) Increment the course trim field until the compare output changes
 436:Generated_Source\PSoC5/COMP_SLOW.c **** *  8) Check if compare output is low, if so, set the MSb of fine trim field
 437:Generated_Source\PSoC5/COMP_SLOW.c **** *     to a 1.
 438:Generated_Source\PSoC5/COMP_SLOW.c **** *  9) Increment the fine trim field until the compare output changes
 439:Generated_Source\PSoC5/COMP_SLOW.c **** *  ** FAST MODE - skip the steps 8,9
 440:Generated_Source\PSoC5/COMP_SLOW.c **** *
 441:Generated_Source\PSoC5/COMP_SLOW.c **** * Side Effects:
 442:Generated_Source\PSoC5/COMP_SLOW.c **** *  Routine clears analog routing associated with the comparator positive input.  
 443:Generated_Source\PSoC5/COMP_SLOW.c **** *  This may affect routing of signals from other components that are connected
 444:Generated_Source\PSoC5/COMP_SLOW.c **** *  to the positive input of the comparator.
 445:Generated_Source\PSoC5/COMP_SLOW.c **** *
 446:Generated_Source\PSoC5/COMP_SLOW.c **** *******************************************************************************/
 447:Generated_Source\PSoC5/COMP_SLOW.c **** uint16 COMP_SLOW_ZeroCal(void) 
 448:Generated_Source\PSoC5/COMP_SLOW.c **** {
 376              		.loc 1 448 0
 377              		.cfi_startproc
ARM GAS  C:\Users\dr\AppData\Local\Temp\ccLnVm5r.s 			page 16


 378              		@ args = 0, pretend = 0, frame = 0
 379              		@ frame_needed = 0, uses_anonymous_args = 0
 380 0000 F8B5     		push	{r3, r4, r5, r6, r7, lr}
 381              		.cfi_def_cfa_offset 24
 382              		.cfi_offset 3, -24
 383              		.cfi_offset 4, -20
 384              		.cfi_offset 5, -16
 385              		.cfi_offset 6, -12
 386              		.cfi_offset 7, -8
 387              		.cfi_offset 14, -4
 449:Generated_Source\PSoC5/COMP_SLOW.c ****     uint8 tmpSW0;
 450:Generated_Source\PSoC5/COMP_SLOW.c ****     uint8 tmpSW2;
 451:Generated_Source\PSoC5/COMP_SLOW.c ****     uint8 tmpSW3;
 452:Generated_Source\PSoC5/COMP_SLOW.c ****     uint8 tmpCR;
 453:Generated_Source\PSoC5/COMP_SLOW.c **** 
 454:Generated_Source\PSoC5/COMP_SLOW.c ****     /* Save a copy of routing registers associated with inP */
 455:Generated_Source\PSoC5/COMP_SLOW.c ****     tmpSW0 = COMP_SLOW_SW0;
 388              		.loc 1 455 0
 389 0002 1E48     		ldr	r0, .L41
 390 0004 0678     		ldrb	r6, [r0]	@ zero_extendqisi2
 391 0006 F6B2     		uxtb	r6, r6
 392              	.LVL12:
 456:Generated_Source\PSoC5/COMP_SLOW.c ****     tmpSW2 = COMP_SLOW_SW2;
 393              		.loc 1 456 0
 394 0008 1D49     		ldr	r1, .L41+4
 395 000a 0D78     		ldrb	r5, [r1]	@ zero_extendqisi2
 396 000c EDB2     		uxtb	r5, r5
 397              	.LVL13:
 457:Generated_Source\PSoC5/COMP_SLOW.c ****     tmpSW3 = COMP_SLOW_SW3;
 398              		.loc 1 457 0
 399 000e 1D4B     		ldr	r3, .L41+8
 400 0010 1C78     		ldrb	r4, [r3]	@ zero_extendqisi2
 401 0012 E4B2     		uxtb	r4, r4
 402              	.LVL14:
 458:Generated_Source\PSoC5/COMP_SLOW.c **** 
 459:Generated_Source\PSoC5/COMP_SLOW.c ****      /* Clear routing for inP, retain routing for inN */
 460:Generated_Source\PSoC5/COMP_SLOW.c ****     COMP_SLOW_SW0 = 0x00u;
 403              		.loc 1 460 0
 404 0014 0022     		movs	r2, #0
 405 0016 0270     		strb	r2, [r0]
 461:Generated_Source\PSoC5/COMP_SLOW.c ****     COMP_SLOW_SW2 = 0x00u;
 406              		.loc 1 461 0
 407 0018 0A70     		strb	r2, [r1]
 462:Generated_Source\PSoC5/COMP_SLOW.c ****     COMP_SLOW_SW3 = tmpSW3 & (uint8)(~COMP_SLOW_CMP_SW3_INPCTL_MASK);
 408              		.loc 1 462 0
 409 001a 04F0F601 		and	r1, r4, #246
 410 001e 1970     		strb	r1, [r3]
 463:Generated_Source\PSoC5/COMP_SLOW.c **** 
 464:Generated_Source\PSoC5/COMP_SLOW.c ****     /* Preserve original configuration
 465:Generated_Source\PSoC5/COMP_SLOW.c ****      * - turn off Hysteresis
 466:Generated_Source\PSoC5/COMP_SLOW.c ****      * - set calibration bit - shorts inN to inP
 467:Generated_Source\PSoC5/COMP_SLOW.c ****     */
 468:Generated_Source\PSoC5/COMP_SLOW.c ****     tmpCR = COMP_SLOW_CR;
 411              		.loc 1 468 0
 412 0020 A3F28323 		subw	r3, r3, #643
 413 0024 1F78     		ldrb	r7, [r3]	@ zero_extendqisi2
 414 0026 FFB2     		uxtb	r7, r7
ARM GAS  C:\Users\dr\AppData\Local\Temp\ccLnVm5r.s 			page 17


 415              	.LVL15:
 469:Generated_Source\PSoC5/COMP_SLOW.c ****     COMP_SLOW_CR |= (COMP_SLOW_CAL_ON | COMP_SLOW_HYST_OFF);
 416              		.loc 1 469 0
 417 0028 1978     		ldrb	r1, [r3]	@ zero_extendqisi2
 418 002a 41F03001 		orr	r1, r1, #48
 419 002e 1970     		strb	r1, [r3]
 470:Generated_Source\PSoC5/COMP_SLOW.c ****     
 471:Generated_Source\PSoC5/COMP_SLOW.c ****     /* Write default low values to trim register - no offset adjust */
 472:Generated_Source\PSoC5/COMP_SLOW.c ****     /* PSoC5A */
 473:Generated_Source\PSoC5/COMP_SLOW.c ****     #if (CY_PSOC5A)
 474:Generated_Source\PSoC5/COMP_SLOW.c ****         COMP_SLOW_TR = COMP_SLOW_DEFAULT_CMP_TRIM;
 475:Generated_Source\PSoC5/COMP_SLOW.c ****     #endif /* CY_PSOC5A */
 476:Generated_Source\PSoC5/COMP_SLOW.c ****     
 477:Generated_Source\PSoC5/COMP_SLOW.c ****     /* PSoC3, PSoC5LP or later */
 478:Generated_Source\PSoC5/COMP_SLOW.c ****     #if (CY_PSOC3 || CY_PSOC5LP)
 479:Generated_Source\PSoC5/COMP_SLOW.c ****         COMP_SLOW_TR0 = COMP_SLOW_DEFAULT_CMP_TRIM;
 420              		.loc 1 479 0
 421 0030 1549     		ldr	r1, .L41+12
 422 0032 0A70     		strb	r2, [r1]
 480:Generated_Source\PSoC5/COMP_SLOW.c ****         COMP_SLOW_TR1 = COMP_SLOW_DEFAULT_CMP_TRIM;
 423              		.loc 1 480 0
 424 0034 0131     		adds	r1, r1, #1
 425 0036 0A70     		strb	r2, [r1]
 481:Generated_Source\PSoC5/COMP_SLOW.c ****     #endif /* CY_PSOC3 || CY_PSOC5LP */
 482:Generated_Source\PSoC5/COMP_SLOW.c **** 	
 483:Generated_Source\PSoC5/COMP_SLOW.c **** 	/* Two phase trim - slow modes, one phase trim - for fast */ 
 484:Generated_Source\PSoC5/COMP_SLOW.c ****     if ( (COMP_SLOW_CR & COMP_SLOW_PWR_MODE_MASK) == COMP_SLOW_PWR_MODE_FAST)
 426              		.loc 1 484 0
 427 0038 1B78     		ldrb	r3, [r3]	@ zero_extendqisi2
 428 003a 03F00303 		and	r3, r3, #3
 429 003e 012B     		cmp	r3, #1
 430 0040 03D1     		bne	.L38
 485:Generated_Source\PSoC5/COMP_SLOW.c ****     {
 486:Generated_Source\PSoC5/COMP_SLOW.c ****         COMP_SLOW_trimAdjust(0u);
 431              		.loc 1 486 0
 432 0042 1046     		mov	r0, r2
 433 0044 FFF7FEFF 		bl	COMP_SLOW_trimAdjust
 434              	.LVL16:
 435 0048 05E0     		b	.L39
 436              	.L38:
 487:Generated_Source\PSoC5/COMP_SLOW.c ****     }
 488:Generated_Source\PSoC5/COMP_SLOW.c ****     else /* default to trim for fast modes */
 489:Generated_Source\PSoC5/COMP_SLOW.c ****     {
 490:Generated_Source\PSoC5/COMP_SLOW.c ****         COMP_SLOW_trimAdjust(1u);
 437              		.loc 1 490 0
 438 004a 0120     		movs	r0, #1
 439 004c FFF7FEFF 		bl	COMP_SLOW_trimAdjust
 440              	.LVL17:
 491:Generated_Source\PSoC5/COMP_SLOW.c **** 		COMP_SLOW_trimAdjust(0u);
 441              		.loc 1 491 0
 442 0050 0020     		movs	r0, #0
 443 0052 FFF7FEFF 		bl	COMP_SLOW_trimAdjust
 444              	.LVL18:
 445              	.L39:
 492:Generated_Source\PSoC5/COMP_SLOW.c ****     }
 493:Generated_Source\PSoC5/COMP_SLOW.c ****    
 494:Generated_Source\PSoC5/COMP_SLOW.c ****     /* Restore Config Register */
ARM GAS  C:\Users\dr\AppData\Local\Temp\ccLnVm5r.s 			page 18


 495:Generated_Source\PSoC5/COMP_SLOW.c ****     COMP_SLOW_CR = tmpCR;
 446              		.loc 1 495 0
 447 0056 0D4B     		ldr	r3, .L41+16
 448 0058 1F70     		strb	r7, [r3]
 496:Generated_Source\PSoC5/COMP_SLOW.c ****     
 497:Generated_Source\PSoC5/COMP_SLOW.c ****     /* Restore routing registers for inP */
 498:Generated_Source\PSoC5/COMP_SLOW.c ****     COMP_SLOW_SW0 = tmpSW0;
 449              		.loc 1 498 0
 450 005a 03F52073 		add	r3, r3, #640
 451 005e 1E70     		strb	r6, [r3]
 499:Generated_Source\PSoC5/COMP_SLOW.c ****     COMP_SLOW_SW2 = tmpSW2;
 452              		.loc 1 499 0
 453 0060 0233     		adds	r3, r3, #2
 454 0062 1D70     		strb	r5, [r3]
 500:Generated_Source\PSoC5/COMP_SLOW.c ****     COMP_SLOW_SW3 = tmpSW3;
 455              		.loc 1 500 0
 456 0064 0133     		adds	r3, r3, #1
 457 0066 1C70     		strb	r4, [r3]
 501:Generated_Source\PSoC5/COMP_SLOW.c ****     
 502:Generated_Source\PSoC5/COMP_SLOW.c ****     /* PSoC5A */
 503:Generated_Source\PSoC5/COMP_SLOW.c ****     #if (CY_PSOC5A)
 504:Generated_Source\PSoC5/COMP_SLOW.c ****         return (uint16) COMP_SLOW_TR;
 505:Generated_Source\PSoC5/COMP_SLOW.c ****     #endif /* CY_PSOC5A */
 506:Generated_Source\PSoC5/COMP_SLOW.c ****     
 507:Generated_Source\PSoC5/COMP_SLOW.c ****     /* PSoC3, PSoC5LP or later */
 508:Generated_Source\PSoC5/COMP_SLOW.c ****     #if (CY_PSOC3 || CY_PSOC5LP)
 509:Generated_Source\PSoC5/COMP_SLOW.c ****         return ((uint16)((uint16)COMP_SLOW_TR1 << 8u) | (COMP_SLOW_TR0));        
 458              		.loc 1 509 0
 459 0068 A3F5A453 		sub	r3, r3, #5248
 460 006c 123B     		subs	r3, r3, #18
 461 006e 1878     		ldrb	r0, [r3]	@ zero_extendqisi2
 462 0070 013B     		subs	r3, r3, #1
 463 0072 1B78     		ldrb	r3, [r3]	@ zero_extendqisi2
 510:Generated_Source\PSoC5/COMP_SLOW.c ****     #endif /* CY_PSOC3 || CY_PSOC5LP */
 511:Generated_Source\PSoC5/COMP_SLOW.c **** }
 464              		.loc 1 511 0
 465 0074 43EA0020 		orr	r0, r3, r0, lsl #8
 466 0078 F8BD     		pop	{r3, r4, r5, r6, r7, pc}
 467              	.LVL19:
 468              	.L42:
 469 007a 00BF     		.align	2
 470              	.L41:
 471 007c C05A0040 		.word	1073765056
 472 0080 C25A0040 		.word	1073765058
 473 0084 C35A0040 		.word	1073765059
 474 0088 30460040 		.word	1073759792
 475 008c 40580040 		.word	1073764416
 476              		.cfi_endproc
 477              	.LFE7:
 478              		.size	COMP_SLOW_ZeroCal, .-COMP_SLOW_ZeroCal
 479              		.section	.text.COMP_SLOW_LoadTrim,"ax",%progbits
 480              		.align	2
 481              		.global	COMP_SLOW_LoadTrim
 482              		.thumb
 483              		.thumb_func
 484              		.type	COMP_SLOW_LoadTrim, %function
 485              	COMP_SLOW_LoadTrim:
ARM GAS  C:\Users\dr\AppData\Local\Temp\ccLnVm5r.s 			page 19


 486              	.LFB8:
 512:Generated_Source\PSoC5/COMP_SLOW.c **** 
 513:Generated_Source\PSoC5/COMP_SLOW.c **** 
 514:Generated_Source\PSoC5/COMP_SLOW.c **** /*******************************************************************************
 515:Generated_Source\PSoC5/COMP_SLOW.c **** * Function Name: COMP_SLOW_LoadTrim
 516:Generated_Source\PSoC5/COMP_SLOW.c **** ********************************************************************************
 517:Generated_Source\PSoC5/COMP_SLOW.c **** *
 518:Generated_Source\PSoC5/COMP_SLOW.c **** * Summary:
 519:Generated_Source\PSoC5/COMP_SLOW.c **** *  This function stores a value in the Analog Comparator trim register.
 520:Generated_Source\PSoC5/COMP_SLOW.c **** *
 521:Generated_Source\PSoC5/COMP_SLOW.c **** * Parameters:  
 522:Generated_Source\PSoC5/COMP_SLOW.c **** *  uint8 trimVal - trim value.  This value is the same format as the value 
 523:Generated_Source\PSoC5/COMP_SLOW.c **** *  returned by the _ZeroCal routine.
 524:Generated_Source\PSoC5/COMP_SLOW.c **** *
 525:Generated_Source\PSoC5/COMP_SLOW.c **** * Return:
 526:Generated_Source\PSoC5/COMP_SLOW.c **** *  None
 527:Generated_Source\PSoC5/COMP_SLOW.c **** *
 528:Generated_Source\PSoC5/COMP_SLOW.c **** *******************************************************************************/
 529:Generated_Source\PSoC5/COMP_SLOW.c **** void COMP_SLOW_LoadTrim(uint16 trimVal) 
 530:Generated_Source\PSoC5/COMP_SLOW.c **** {
 487              		.loc 1 530 0
 488              		.cfi_startproc
 489              		@ args = 0, pretend = 0, frame = 0
 490              		@ frame_needed = 0, uses_anonymous_args = 0
 491              		@ link register save eliminated.
 492              	.LVL20:
 531:Generated_Source\PSoC5/COMP_SLOW.c ****     /* Stores value in the Analog Comparator trim register */
 532:Generated_Source\PSoC5/COMP_SLOW.c ****     /* PSoC5A */
 533:Generated_Source\PSoC5/COMP_SLOW.c ****     #if (CY_PSOC5A)
 534:Generated_Source\PSoC5/COMP_SLOW.c ****         COMP_SLOW_TR = (uint8) trimVal;
 535:Generated_Source\PSoC5/COMP_SLOW.c ****     #endif /* CY_PSOC5A */
 536:Generated_Source\PSoC5/COMP_SLOW.c ****     
 537:Generated_Source\PSoC5/COMP_SLOW.c ****     /* PSoC3, PSoC5LP or later */
 538:Generated_Source\PSoC5/COMP_SLOW.c ****     #if (CY_PSOC3 || CY_PSOC5LP)
 539:Generated_Source\PSoC5/COMP_SLOW.c ****         /* Stores value in the Analog Comparator trim register for P-type load */
 540:Generated_Source\PSoC5/COMP_SLOW.c ****         COMP_SLOW_TR0 = (uint8) trimVal;
 493              		.loc 1 540 0
 494 0000 C2B2     		uxtb	r2, r0
 495 0002 034B     		ldr	r3, .L44
 496 0004 1A70     		strb	r2, [r3]
 541:Generated_Source\PSoC5/COMP_SLOW.c ****         
 542:Generated_Source\PSoC5/COMP_SLOW.c ****         /* Stores value in the Analog Comparator trim register for N-type load */
 543:Generated_Source\PSoC5/COMP_SLOW.c ****         COMP_SLOW_TR1 = (uint8) (trimVal >> 8); 
 497              		.loc 1 543 0
 498 0006 000A     		lsrs	r0, r0, #8
 499              	.LVL21:
 500 0008 0133     		adds	r3, r3, #1
 501 000a 1870     		strb	r0, [r3]
 502 000c 7047     		bx	lr
 503              	.L45:
 504 000e 00BF     		.align	2
 505              	.L44:
 506 0010 30460040 		.word	1073759792
 507              		.cfi_endproc
 508              	.LFE8:
 509              		.size	COMP_SLOW_LoadTrim, .-COMP_SLOW_LoadTrim
 510              		.section	.text.COMP_SLOW_PwrDwnOverrideEnable,"ax",%progbits
ARM GAS  C:\Users\dr\AppData\Local\Temp\ccLnVm5r.s 			page 20


 511              		.align	2
 512              		.global	COMP_SLOW_PwrDwnOverrideEnable
 513              		.thumb
 514              		.thumb_func
 515              		.type	COMP_SLOW_PwrDwnOverrideEnable, %function
 516              	COMP_SLOW_PwrDwnOverrideEnable:
 517              	.LFB9:
 544:Generated_Source\PSoC5/COMP_SLOW.c ****     #endif /* CY_PSOC3 || CY_PSOC5LP */
 545:Generated_Source\PSoC5/COMP_SLOW.c **** }
 546:Generated_Source\PSoC5/COMP_SLOW.c **** 
 547:Generated_Source\PSoC5/COMP_SLOW.c **** 
 548:Generated_Source\PSoC5/COMP_SLOW.c **** #if (CY_PSOC3 || CY_PSOC5LP)
 549:Generated_Source\PSoC5/COMP_SLOW.c **** 
 550:Generated_Source\PSoC5/COMP_SLOW.c ****     /*******************************************************************************
 551:Generated_Source\PSoC5/COMP_SLOW.c ****     * Function Name: COMP_SLOW_PwrDwnOverrideEnable
 552:Generated_Source\PSoC5/COMP_SLOW.c ****     ********************************************************************************
 553:Generated_Source\PSoC5/COMP_SLOW.c ****     *
 554:Generated_Source\PSoC5/COMP_SLOW.c ****     * Summary:
 555:Generated_Source\PSoC5/COMP_SLOW.c ****     *  This is the power down over-ride feature. This function ignores sleep 
 556:Generated_Source\PSoC5/COMP_SLOW.c ****     *  parameter and allows the component to stay active during sleep mode.
 557:Generated_Source\PSoC5/COMP_SLOW.c ****     *
 558:Generated_Source\PSoC5/COMP_SLOW.c ****     * Parameters:
 559:Generated_Source\PSoC5/COMP_SLOW.c ****     *  None
 560:Generated_Source\PSoC5/COMP_SLOW.c ****     *
 561:Generated_Source\PSoC5/COMP_SLOW.c ****     * Return:
 562:Generated_Source\PSoC5/COMP_SLOW.c ****     *  None
 563:Generated_Source\PSoC5/COMP_SLOW.c ****     *
 564:Generated_Source\PSoC5/COMP_SLOW.c ****     *******************************************************************************/
 565:Generated_Source\PSoC5/COMP_SLOW.c ****     void COMP_SLOW_PwrDwnOverrideEnable(void) 
 566:Generated_Source\PSoC5/COMP_SLOW.c ****     {
 518              		.loc 1 566 0
 519              		.cfi_startproc
 520              		@ args = 0, pretend = 0, frame = 0
 521              		@ frame_needed = 0, uses_anonymous_args = 0
 522              		@ link register save eliminated.
 567:Generated_Source\PSoC5/COMP_SLOW.c ****         /* Set the pd_override bit in CMP_CR register */
 568:Generated_Source\PSoC5/COMP_SLOW.c ****         COMP_SLOW_CR |= COMP_SLOW_PWRDWN_OVRD;
 523              		.loc 1 568 0
 524 0000 024A     		ldr	r2, .L47
 525 0002 1378     		ldrb	r3, [r2]	@ zero_extendqisi2
 526 0004 43F00403 		orr	r3, r3, #4
 527 0008 1370     		strb	r3, [r2]
 528 000a 7047     		bx	lr
 529              	.L48:
 530              		.align	2
 531              	.L47:
 532 000c 40580040 		.word	1073764416
 533              		.cfi_endproc
 534              	.LFE9:
 535              		.size	COMP_SLOW_PwrDwnOverrideEnable, .-COMP_SLOW_PwrDwnOverrideEnable
 536              		.section	.text.COMP_SLOW_PwrDwnOverrideDisable,"ax",%progbits
 537              		.align	2
 538              		.global	COMP_SLOW_PwrDwnOverrideDisable
 539              		.thumb
 540              		.thumb_func
 541              		.type	COMP_SLOW_PwrDwnOverrideDisable, %function
 542              	COMP_SLOW_PwrDwnOverrideDisable:
ARM GAS  C:\Users\dr\AppData\Local\Temp\ccLnVm5r.s 			page 21


 543              	.LFB10:
 569:Generated_Source\PSoC5/COMP_SLOW.c ****     }
 570:Generated_Source\PSoC5/COMP_SLOW.c **** 
 571:Generated_Source\PSoC5/COMP_SLOW.c **** 
 572:Generated_Source\PSoC5/COMP_SLOW.c ****     /*******************************************************************************
 573:Generated_Source\PSoC5/COMP_SLOW.c ****     * Function Name: COMP_SLOW_PwrDwnOverrideDisable
 574:Generated_Source\PSoC5/COMP_SLOW.c ****     ********************************************************************************
 575:Generated_Source\PSoC5/COMP_SLOW.c ****     *
 576:Generated_Source\PSoC5/COMP_SLOW.c ****     * Summary:
 577:Generated_Source\PSoC5/COMP_SLOW.c ****     *  This is the power down over-ride feature. This allows the component to stay
 578:Generated_Source\PSoC5/COMP_SLOW.c ****     *  inactive during sleep.
 579:Generated_Source\PSoC5/COMP_SLOW.c ****     *
 580:Generated_Source\PSoC5/COMP_SLOW.c ****     * Parameters:
 581:Generated_Source\PSoC5/COMP_SLOW.c ****     *  None
 582:Generated_Source\PSoC5/COMP_SLOW.c ****     *
 583:Generated_Source\PSoC5/COMP_SLOW.c ****     * Return:
 584:Generated_Source\PSoC5/COMP_SLOW.c ****     *  None
 585:Generated_Source\PSoC5/COMP_SLOW.c ****     *
 586:Generated_Source\PSoC5/COMP_SLOW.c ****     *******************************************************************************/
 587:Generated_Source\PSoC5/COMP_SLOW.c ****     void COMP_SLOW_PwrDwnOverrideDisable(void) 
 588:Generated_Source\PSoC5/COMP_SLOW.c ****     {
 544              		.loc 1 588 0
 545              		.cfi_startproc
 546              		@ args = 0, pretend = 0, frame = 0
 547              		@ frame_needed = 0, uses_anonymous_args = 0
 548              		@ link register save eliminated.
 589:Generated_Source\PSoC5/COMP_SLOW.c ****         /* Reset the pd_override bit in CMP_CR register */
 590:Generated_Source\PSoC5/COMP_SLOW.c ****         COMP_SLOW_CR &= (uint8)(~COMP_SLOW_PWRDWN_OVRD);
 549              		.loc 1 590 0
 550 0000 024A     		ldr	r2, .L50
 551 0002 1378     		ldrb	r3, [r2]	@ zero_extendqisi2
 552 0004 03F0FB03 		and	r3, r3, #251
 553 0008 1370     		strb	r3, [r2]
 554 000a 7047     		bx	lr
 555              	.L51:
 556              		.align	2
 557              	.L50:
 558 000c 40580040 		.word	1073764416
 559              		.cfi_endproc
 560              	.LFE10:
 561              		.size	COMP_SLOW_PwrDwnOverrideDisable, .-COMP_SLOW_PwrDwnOverrideDisable
 562              		.global	COMP_SLOW_initVar
 563              		.bss
 564              		.set	.LANCHOR0,. + 0
 565              		.type	COMP_SLOW_initVar, %object
 566              		.size	COMP_SLOW_initVar, 1
 567              	COMP_SLOW_initVar:
 568 0000 00       		.space	1
 569              		.text
 570              	.Letext0:
 571              		.file 2 "Generated_Source\\PSoC5\\cytypes.h"
 572              		.file 3 "Generated_Source\\PSoC5\\CyLib.h"