ARM GAS  C:\Users\dr\AppData\Local\Temp\ccB0tsWh.s 			page 1


   1              		.syntax unified
   2              		.cpu cortex-m3
   3              		.fpu softvfp
   4              		.eabi_attribute 20, 1
   5              		.eabi_attribute 21, 1
   6              		.eabi_attribute 23, 3
   7              		.eabi_attribute 24, 1
   8              		.eabi_attribute 25, 1
   9              		.eabi_attribute 26, 1
  10              		.eabi_attribute 30, 1
  11              		.eabi_attribute 34, 1
  12              		.eabi_attribute 18, 4
  13              		.thumb
  14              		.syntax unified
  15              		.file	"inputcontrol.c"
  16              		.text
  17              	.Ltext0:
  18              		.cfi_sections	.debug_frame
  19              		.section	.text.INIT_INPUT_CONTROL,"ax",%progbits
  20              		.align	2
  21              		.global	INIT_INPUT_CONTROL
  22              		.thumb
  23              		.thumb_func
  24              		.type	INIT_INPUT_CONTROL, %function
  25              	INIT_INPUT_CONTROL:
  26              	.LFB63:
  27              		.file 1 "inputcontrol.c"
   1:inputcontrol.c **** /* ========================================
   2:inputcontrol.c ****  *
   3:inputcontrol.c ****  * SHW - Visible light Communication Controller
   4:inputcontrol.c ****  * Bjarki Johannsson 2017
   5:inputcontrol.c ****  * Open Source
   6:inputcontrol.c ****  *
   7:inputcontrol.c ****  *
   8:inputcontrol.c ****  * ========================================
   9:inputcontrol.c **** */
  10:inputcontrol.c **** 
  11:inputcontrol.c **** #include "inputcontrol.h"
  12:inputcontrol.c **** 
  13:inputcontrol.c **** void INIT_INPUT_CONTROL()
  14:inputcontrol.c **** {
  28              		.loc 1 14 0
  29              		.cfi_startproc
  30              		@ args = 0, pretend = 0, frame = 0
  31              		@ frame_needed = 0, uses_anonymous_args = 0
  32 0000 38B5     		push	{r3, r4, r5, lr}
  33              		.cfi_def_cfa_offset 16
  34              		.cfi_offset 3, -16
  35              		.cfi_offset 4, -12
  36              		.cfi_offset 5, -8
  37              		.cfi_offset 14, -4
  15:inputcontrol.c **** 	// Setup DMA for thresholds
  16:inputcontrol.c **** 	DMA_AVG_Chan = DMA_AVG_DmaInitialize(DMA_AVG_BYTES_PER_BURST, DMA_AVG_REQUEST_PER_BURST, 
  38              		.loc 1 16 0
  39 0002 41F6FF73 		movw	r3, #8191
  40 0006 4FF48042 		mov	r2, #16384
  41 000a 0121     		movs	r1, #1
ARM GAS  C:\Users\dr\AppData\Local\Temp\ccB0tsWh.s 			page 2


  42 000c 0220     		movs	r0, #2
  43 000e FFF7FEFF 		bl	DMA_AVG_DmaInitialize
  44              	.LVL0:
  45 0012 254C     		ldr	r4, .L7
  46 0014 2070     		strb	r0, [r4]
  17:inputcontrol.c **** 	    HI16(DMA_AVG_SRC_BASE), HI16(DMA_AVG_DST_BASE));
  18:inputcontrol.c **** 	DMA_AVG_TD[0] = CyDmaTdAllocate();
  47              		.loc 1 18 0
  48 0016 FFF7FEFF 		bl	CyDmaTdAllocate
  49              	.LVL1:
  50 001a 244D     		ldr	r5, .L7+4
  51 001c 2870     		strb	r0, [r5]
  19:inputcontrol.c **** 
  20:inputcontrol.c **** 	CyDmaTdSetConfiguration(DMA_AVG_TD[0], 2, CY_DMA_DISABLE_TD, DMA_AVG__TD_TERMOUT_EN);
  52              		.loc 1 20 0
  53 001e 0023     		movs	r3, #0
  54 0020 FE22     		movs	r2, #254
  55 0022 0221     		movs	r1, #2
  56 0024 FFF7FEFF 		bl	CyDmaTdSetConfiguration
  57              	.LVL2:
  21:inputcontrol.c **** 	CyDmaTdSetAddress(DMA_AVG_TD[0], LO16((uint32)ADC_SAR_SAR_WRK0_PTR), LO16((uint32)&avgCurrSample))
  58              		.loc 1 21 0
  59 0028 214A     		ldr	r2, .L7+8
  60 002a 92B2     		uxth	r2, r2
  61 002c 45F6A031 		movw	r1, #23456
  62 0030 2878     		ldrb	r0, [r5]	@ zero_extendqisi2
  63 0032 FFF7FEFF 		bl	CyDmaTdSetAddress
  64              	.LVL3:
  22:inputcontrol.c **** 	CyDmaChSetInitialTd(DMA_AVG_Chan, DMA_AVG_TD[0]);
  65              		.loc 1 22 0
  66 0036 2978     		ldrb	r1, [r5]	@ zero_extendqisi2
  67 0038 2078     		ldrb	r0, [r4]	@ zero_extendqisi2
  68 003a FFF7FEFF 		bl	CyDmaChSetInitialTd
  69              	.LVL4:
  23:inputcontrol.c **** 	CyDmaChEnable(DMA_AVG_Chan, 1);
  70              		.loc 1 23 0
  71 003e 0121     		movs	r1, #1
  72 0040 2078     		ldrb	r0, [r4]	@ zero_extendqisi2
  73 0042 FFF7FEFF 		bl	CyDmaChEnable
  74              	.LVL5:
  24:inputcontrol.c **** 	
  25:inputcontrol.c **** 	
  26:inputcontrol.c **** 	// Start DACs and comparators
  27:inputcontrol.c **** 	DAC_SLOW_Start();
  75              		.loc 1 27 0
  76 0046 FFF7FEFF 		bl	DAC_SLOW_Start
  77              	.LVL6:
  28:inputcontrol.c **** 	DAC_FAST_Start();
  78              		.loc 1 28 0
  79 004a FFF7FEFF 		bl	DAC_FAST_Start
  80              	.LVL7:
  29:inputcontrol.c ****     
  30:inputcontrol.c **** 	COMP_SLOW_Start();
  81              		.loc 1 30 0
  82 004e FFF7FEFF 		bl	COMP_SLOW_Start
  83              	.LVL8:
  31:inputcontrol.c **** 	COMP_SLOW_Enable();
ARM GAS  C:\Users\dr\AppData\Local\Temp\ccB0tsWh.s 			page 3


  84              		.loc 1 31 0
  85 0052 FFF7FEFF 		bl	COMP_SLOW_Enable
  86              	.LVL9:
  32:inputcontrol.c **** 	COMP_FAST_Start();
  87              		.loc 1 32 0
  88 0056 FFF7FEFF 		bl	COMP_FAST_Start
  89              	.LVL10:
  33:inputcontrol.c **** 	COMP_FAST_Enable();
  90              		.loc 1 33 0
  91 005a FFF7FEFF 		bl	COMP_FAST_Enable
  92              	.LVL11:
  34:inputcontrol.c **** 
  35:inputcontrol.c **** 
  36:inputcontrol.c **** 	// Initialize to zero
  37:inputcontrol.c **** 	thsi = 0;
  93              		.loc 1 37 0
  94 005e 0023     		movs	r3, #0
  95 0060 144A     		ldr	r2, .L7+12
  96 0062 1370     		strb	r3, [r2]
  38:inputcontrol.c **** 	thSlowSum = 0; thSlowMean = 0; thSlowStd = 0; thSlowStdCurr = 0;
  97              		.loc 1 38 0
  98 0064 144A     		ldr	r2, .L7+16
  99 0066 1360     		str	r3, [r2]
 100 0068 144A     		ldr	r2, .L7+20
 101 006a 1380     		strh	r3, [r2]	@ movhi
 102 006c 144A     		ldr	r2, .L7+24
 103 006e 1380     		strh	r3, [r2]	@ movhi
 104 0070 144A     		ldr	r2, .L7+28
 105 0072 1380     		strh	r3, [r2]	@ movhi
  39:inputcontrol.c **** //	flag_avg_isr = false;
  40:inputcontrol.c **** 	thFlag = false;
 106              		.loc 1 40 0
 107 0074 144A     		ldr	r2, .L7+32
 108 0076 1370     		strb	r3, [r2]
 109              	.LVL12:
  41:inputcontrol.c **** 	
  42:inputcontrol.c **** 	int i;
  43:inputcontrol.c **** 	for (i=0; i<N_TH_SLOW; i++) {
 110              		.loc 1 43 0
 111 0078 04E0     		b	.L2
 112              	.LVL13:
 113              	.L3:
  44:inputcontrol.c **** 		thSlowBuffer[i] = 0;
 114              		.loc 1 44 0 discriminator 3
 115 007a 0021     		movs	r1, #0
 116 007c 134A     		ldr	r2, .L7+36
 117 007e 22F81310 		strh	r1, [r2, r3, lsl #1]	@ movhi
  43:inputcontrol.c **** 		thSlowBuffer[i] = 0;
 118              		.loc 1 43 0 discriminator 3
 119 0082 0133     		adds	r3, r3, #1
 120              	.LVL14:
 121              	.L2:
  43:inputcontrol.c **** 		thSlowBuffer[i] = 0;
 122              		.loc 1 43 0 is_stmt 0 discriminator 1
 123 0084 1F2B     		cmp	r3, #31
 124 0086 F8DD     		ble	.L3
 125 0088 0023     		movs	r3, #0
ARM GAS  C:\Users\dr\AppData\Local\Temp\ccB0tsWh.s 			page 4


 126              	.LVL15:
 127 008a 04E0     		b	.L4
 128              	.LVL16:
 129              	.L5:
  45:inputcontrol.c **** 	}
  46:inputcontrol.c **** 	for (i=0; i<N_TH_FAST; i++) {
  47:inputcontrol.c **** 		thFastBuffer[i] = 0;
 130              		.loc 1 47 0 is_stmt 1 discriminator 3
 131 008c 0021     		movs	r1, #0
 132 008e 104A     		ldr	r2, .L7+40
 133 0090 22F81310 		strh	r1, [r2, r3, lsl #1]	@ movhi
  46:inputcontrol.c **** 		thFastBuffer[i] = 0;
 134              		.loc 1 46 0 discriminator 3
 135 0094 0133     		adds	r3, r3, #1
 136              	.LVL17:
 137              	.L4:
  46:inputcontrol.c **** 		thFastBuffer[i] = 0;
 138              		.loc 1 46 0 is_stmt 0 discriminator 1
 139 0096 072B     		cmp	r3, #7
 140 0098 F8DD     		ble	.L5
  48:inputcontrol.c **** 	}
  49:inputcontrol.c **** 
  50:inputcontrol.c **** 	// Setup ISR
  51:inputcontrol.c **** 	ISR_DMA_AVG_StartEx(ISR_AVG_h);
 141              		.loc 1 51 0 is_stmt 1
 142 009a 0E48     		ldr	r0, .L7+44
 143 009c FFF7FEFF 		bl	ISR_DMA_AVG_StartEx
 144              	.LVL18:
  52:inputcontrol.c **** 	ISR_DMA_AVG_Enable();
 145              		.loc 1 52 0
 146 00a0 FFF7FEFF 		bl	ISR_DMA_AVG_Enable
 147              	.LVL19:
 148 00a4 38BD     		pop	{r3, r4, r5, pc}
 149              	.L8:
 150 00a6 00BF     		.align	2
 151              	.L7:
 152 00a8 00000000 		.word	DMA_AVG_Chan
 153 00ac 00000000 		.word	DMA_AVG_TD
 154 00b0 00000000 		.word	avgCurrSample
 155 00b4 00000000 		.word	thsi
 156 00b8 00000000 		.word	thSlowSum
 157 00bc 00000000 		.word	thSlowMean
 158 00c0 00000000 		.word	thSlowStd
 159 00c4 00000000 		.word	thSlowStdCurr
 160 00c8 00000000 		.word	thFlag
 161 00cc 00000000 		.word	thSlowBuffer
 162 00d0 00000000 		.word	thFastBuffer
 163 00d4 00000000 		.word	ISR_AVG_h
 164              		.cfi_endproc
 165              	.LFE63:
 166              		.size	INIT_INPUT_CONTROL, .-INIT_INPUT_CONTROL
 167              		.global	__aeabi_i2d
 168              		.global	__aeabi_d2uiz
 169              		.section	.text.calculateTh,"ax",%progbits
 170              		.align	2
 171              		.global	calculateTh
 172              		.thumb
ARM GAS  C:\Users\dr\AppData\Local\Temp\ccB0tsWh.s 			page 5


 173              		.thumb_func
 174              		.type	calculateTh, %function
 175              	calculateTh:
 176              	.LFB64:
  53:inputcontrol.c **** }
  54:inputcontrol.c **** 
  55:inputcontrol.c **** /* Calculate and update thresholds */
  56:inputcontrol.c **** void calculateTh()
  57:inputcontrol.c **** {
 177              		.loc 1 57 0
 178              		.cfi_startproc
 179              		@ args = 0, pretend = 0, frame = 0
 180              		@ frame_needed = 0, uses_anonymous_args = 0
 181 0000 2DE9F84F 		push	{r3, r4, r5, r6, r7, r8, r9, r10, fp, lr}
 182              		.cfi_def_cfa_offset 40
 183              		.cfi_offset 3, -40
 184              		.cfi_offset 4, -36
 185              		.cfi_offset 5, -32
 186              		.cfi_offset 6, -28
 187              		.cfi_offset 7, -24
 188              		.cfi_offset 8, -20
 189              		.cfi_offset 9, -16
 190              		.cfi_offset 10, -12
 191              		.cfi_offset 11, -8
 192              		.cfi_offset 14, -4
  58:inputcontrol.c **** 	// Update average
  59:inputcontrol.c **** 	thSlowSum -= thSlowBuffer[thsi];
 193              		.loc 1 59 0
 194 0004 4D4D     		ldr	r5, .L13
 195 0006 2978     		ldrb	r1, [r5]	@ zero_extendqisi2
 196 0008 4D48     		ldr	r0, .L13+4
 197 000a 30F81140 		ldrh	r4, [r0, r1, lsl #1]
 198 000e 4D4A     		ldr	r2, .L13+8
 199 0010 1368     		ldr	r3, [r2]
 200 0012 1C1B     		subs	r4, r3, r4
  60:inputcontrol.c **** 	thSlowBuffer[thsi] = avgCurrSample;
 201              		.loc 1 60 0
 202 0014 4C4B     		ldr	r3, .L13+12
 203 0016 1B88     		ldrh	r3, [r3]
 204 0018 20F81130 		strh	r3, [r0, r1, lsl #1]	@ movhi
  61:inputcontrol.c **** 	thSlowSum += thSlowBuffer[thsi];
 205              		.loc 1 61 0
 206 001c 1C44     		add	r4, r4, r3
 207 001e 1460     		str	r4, [r2]
  62:inputcontrol.c **** 	thSlowMean = thSlowSum / N_TH_SLOW;
 208              		.loc 1 62 0
 209 0020 C4F34F14 		ubfx	r4, r4, #5, #16
 210 0024 494A     		ldr	r2, .L13+16
 211 0026 1480     		strh	r4, [r2]	@ movhi
  63:inputcontrol.c **** 	
  64:inputcontrol.c **** 	thFastSum -= thFastBuffer[thfi];
 212              		.loc 1 64 0
 213 0028 DFF84C81 		ldr	r8, .L13+60
 214 002c 98F80060 		ldrb	r6, [r8]	@ zero_extendqisi2
 215 0030 DFF84C91 		ldr	r9, .L13+68
 216 0034 39F81670 		ldrh	r7, [r9, r6, lsl #1]
 217 0038 4548     		ldr	r0, .L13+20
ARM GAS  C:\Users\dr\AppData\Local\Temp\ccB0tsWh.s 			page 6


 218 003a 0268     		ldr	r2, [r0]
 219 003c D21B     		subs	r2, r2, r7
  65:inputcontrol.c **** 	thFastBuffer[thfi] = thSlowBuffer[thsi];
 220              		.loc 1 65 0
 221 003e 29F81630 		strh	r3, [r9, r6, lsl #1]	@ movhi
  66:inputcontrol.c **** 	thFastSum += thFastBuffer[thfi];
 222              		.loc 1 66 0
 223 0042 1A44     		add	r2, r2, r3
 224 0044 0260     		str	r2, [r0]
  67:inputcontrol.c **** 	thFastMean = thFastSum / N_TH_FAST;
 225              		.loc 1 67 0
 226 0046 D208     		lsrs	r2, r2, #3
 227 0048 424F     		ldr	r7, .L13+24
 228 004a 3A80     		strh	r2, [r7]	@ movhi
  68:inputcontrol.c **** 	
  69:inputcontrol.c **** 	// Update st. dev.
  70:inputcontrol.c **** 	thSlowStdSum -= thSlowStdBuffer[thsi];
 229              		.loc 1 70 0
 230 004c DFF834B1 		ldr	fp, .L13+72
 231 0050 3BF81110 		ldrh	r1, [fp, r1, lsl #1]
 232 0054 404E     		ldr	r6, .L13+28
 233 0056 3268     		ldr	r2, [r6]
 234 0058 521A     		subs	r2, r2, r1
 235 005a 3260     		str	r2, [r6]
  71:inputcontrol.c **** 	thStdTemp = thSlowBuffer[thsi]-thSlowMean;
 236              		.loc 1 71 0
 237 005c 1C1B     		subs	r4, r3, r4
 238 005e 24B2     		sxth	r4, r4
 239 0060 DFF824A1 		ldr	r10, .L13+76
 240 0064 AAF80040 		strh	r4, [r10]	@ movhi
  72:inputcontrol.c **** 	thSlowStdCurr = sqrt(thStdTemp*thStdTemp);
 241              		.loc 1 72 0
 242 0068 04FB04F4 		mul	r4, r4, r4
 243 006c 2046     		mov	r0, r4
 244 006e FFF7FEFF 		bl	__aeabi_i2d
 245              	.LVL20:
 246 0072 FFF7FEFF 		bl	sqrt
 247              	.LVL21:
 248 0076 FFF7FEFF 		bl	__aeabi_d2uiz
 249              	.LVL22:
 250 007a 80B2     		uxth	r0, r0
 251 007c 374B     		ldr	r3, .L13+32
 252 007e 1880     		strh	r0, [r3]	@ movhi
  73:inputcontrol.c **** 	thSlowStdBuffer[thsi] = thSlowStdCurr;
 253              		.loc 1 73 0
 254 0080 2B78     		ldrb	r3, [r5]	@ zero_extendqisi2
 255 0082 2BF81300 		strh	r0, [fp, r3, lsl #1]	@ movhi
  74:inputcontrol.c **** 	thSlowStdSum += thSlowStdCurr;
 256              		.loc 1 74 0
 257 0086 3368     		ldr	r3, [r6]
 258 0088 1844     		add	r0, r0, r3
 259 008a 3060     		str	r0, [r6]
  75:inputcontrol.c **** 	thSlowStd = thSlowStdSum / N_TH_SLOW;
 260              		.loc 1 75 0
 261 008c 4009     		lsrs	r0, r0, #5
 262 008e 344E     		ldr	r6, .L13+36
 263 0090 3080     		strh	r0, [r6]	@ movhi
ARM GAS  C:\Users\dr\AppData\Local\Temp\ccB0tsWh.s 			page 7


  76:inputcontrol.c **** 	
  77:inputcontrol.c **** 	thFastStdSum -= thFastStdBuffer[thfi];
 264              		.loc 1 77 0
 265 0092 98F80020 		ldrb	r2, [r8]	@ zero_extendqisi2
 266 0096 DFF8F4B0 		ldr	fp, .L13+80
 267 009a 3BF81210 		ldrh	r1, [fp, r2, lsl #1]
 268 009e 314C     		ldr	r4, .L13+40
 269 00a0 2368     		ldr	r3, [r4]
 270 00a2 5B1A     		subs	r3, r3, r1
 271 00a4 2360     		str	r3, [r4]
  78:inputcontrol.c **** 	thStdTemp = thFastBuffer[thfi]-thFastMean;
 272              		.loc 1 78 0
 273 00a6 39F81230 		ldrh	r3, [r9, r2, lsl #1]
 274 00aa 3888     		ldrh	r0, [r7]
 275 00ac 181A     		subs	r0, r3, r0
 276 00ae 00B2     		sxth	r0, r0
 277 00b0 AAF80000 		strh	r0, [r10]	@ movhi
  79:inputcontrol.c **** 	thFastStdCurr = sqrt(thStdTemp*thStdTemp);
 278              		.loc 1 79 0
 279 00b4 00FB00F9 		mul	r9, r0, r0
 280 00b8 4846     		mov	r0, r9
 281 00ba FFF7FEFF 		bl	__aeabi_i2d
 282              	.LVL23:
 283 00be FFF7FEFF 		bl	sqrt
 284              	.LVL24:
 285 00c2 FFF7FEFF 		bl	__aeabi_d2uiz
 286              	.LVL25:
 287 00c6 80B2     		uxth	r0, r0
 288 00c8 274B     		ldr	r3, .L13+44
 289 00ca 1880     		strh	r0, [r3]	@ movhi
  80:inputcontrol.c **** 	thFastStdBuffer[thfi] = thFastStdCurr;
 290              		.loc 1 80 0
 291 00cc 98F80030 		ldrb	r3, [r8]	@ zero_extendqisi2
 292 00d0 2BF81300 		strh	r0, [fp, r3, lsl #1]	@ movhi
  81:inputcontrol.c **** 	thFastStdSum += thFastStdCurr;
 293              		.loc 1 81 0
 294 00d4 2368     		ldr	r3, [r4]
 295 00d6 C218     		adds	r2, r0, r3
 296 00d8 2260     		str	r2, [r4]
  82:inputcontrol.c **** 	thFastStd = thFastStdSum / N_TH_FAST;
 297              		.loc 1 82 0
 298 00da C2F3CF02 		ubfx	r2, r2, #3, #16
 299 00de 234B     		ldr	r3, .L13+48
 300 00e0 1A80     		strh	r2, [r3]	@ movhi
  83:inputcontrol.c **** 	
  84:inputcontrol.c **** 	// Calculate threshold value
  85:inputcontrol.c **** 	thSlowValue = thSlowMean + 2*thSlowStd + 50;
 301              		.loc 1 85 0
 302 00e2 3088     		ldrh	r0, [r6]
 303 00e4 194B     		ldr	r3, .L13+16
 304 00e6 1B88     		ldrh	r3, [r3]
 305 00e8 03EB4000 		add	r0, r3, r0, lsl #1
 306 00ec 3230     		adds	r0, r0, #50
 307 00ee 80B2     		uxth	r0, r0
 308 00f0 1F4B     		ldr	r3, .L13+52
 309 00f2 1880     		strh	r0, [r3]	@ movhi
  86:inputcontrol.c **** 	thFastValue = thFastMean + 2*thFastStd + 50;
ARM GAS  C:\Users\dr\AppData\Local\Temp\ccB0tsWh.s 			page 8


 310              		.loc 1 86 0
 311 00f4 1F4C     		ldr	r4, .L13+56
 312 00f6 3B88     		ldrh	r3, [r7]
 313 00f8 03EB4202 		add	r2, r3, r2, lsl #1
 314 00fc 3232     		adds	r2, r2, #50
 315 00fe 2280     		strh	r2, [r4]	@ movhi
  87:inputcontrol.c **** 	
  88:inputcontrol.c **** 	// Write to DVDAC
  89:inputcontrol.c **** 	DAC_SLOW_SetValue(thSlowValue);
 316              		.loc 1 89 0
 317 0100 FFF7FEFF 		bl	DAC_SLOW_SetValue
 318              	.LVL26:
  90:inputcontrol.c **** 	DAC_FAST_SetValue(thFastValue);
 319              		.loc 1 90 0
 320 0104 2088     		ldrh	r0, [r4]
 321 0106 FFF7FEFF 		bl	DAC_FAST_SetValue
 322              	.LVL27:
  91:inputcontrol.c **** 	
  92:inputcontrol.c **** 	// Increment buffer index
  93:inputcontrol.c **** 	if (++thsi == N_TH_SLOW) thsi = 0;
 323              		.loc 1 93 0
 324 010a 2B78     		ldrb	r3, [r5]	@ zero_extendqisi2
 325 010c 0133     		adds	r3, r3, #1
 326 010e DBB2     		uxtb	r3, r3
 327 0110 2B70     		strb	r3, [r5]
 328 0112 202B     		cmp	r3, #32
 329 0114 01D1     		bne	.L10
 330              		.loc 1 93 0 is_stmt 0 discriminator 1
 331 0116 0022     		movs	r2, #0
 332 0118 2A70     		strb	r2, [r5]
 333              	.L10:
  94:inputcontrol.c **** 	if (++thfi == N_TH_FAST) thfi = 0;
 334              		.loc 1 94 0 is_stmt 1
 335 011a 174A     		ldr	r2, .L13+60
 336 011c 1378     		ldrb	r3, [r2]	@ zero_extendqisi2
 337 011e 0133     		adds	r3, r3, #1
 338 0120 DBB2     		uxtb	r3, r3
 339 0122 1370     		strb	r3, [r2]
 340 0124 082B     		cmp	r3, #8
 341 0126 02D1     		bne	.L11
 342              		.loc 1 94 0 is_stmt 0 discriminator 1
 343 0128 0022     		movs	r2, #0
 344 012a 134B     		ldr	r3, .L13+60
 345 012c 1A70     		strb	r2, [r3]
 346              	.L11:
  95:inputcontrol.c **** 	
  96:inputcontrol.c **** 	thCnt ++;
 347              		.loc 1 96 0 is_stmt 1
 348 012e 134A     		ldr	r2, .L13+64
 349 0130 1388     		ldrh	r3, [r2]
 350 0132 0133     		adds	r3, r3, #1
 351 0134 1380     		strh	r3, [r2]	@ movhi
 352 0136 BDE8F88F 		pop	{r3, r4, r5, r6, r7, r8, r9, r10, fp, pc}
 353              	.L14:
 354 013a 00BF     		.align	2
 355              	.L13:
 356 013c 00000000 		.word	thsi
ARM GAS  C:\Users\dr\AppData\Local\Temp\ccB0tsWh.s 			page 9


 357 0140 00000000 		.word	thSlowBuffer
 358 0144 00000000 		.word	thSlowSum
 359 0148 00000000 		.word	avgCurrSample
 360 014c 00000000 		.word	thSlowMean
 361 0150 00000000 		.word	thFastSum
 362 0154 00000000 		.word	thFastMean
 363 0158 00000000 		.word	thSlowStdSum
 364 015c 00000000 		.word	thSlowStdCurr
 365 0160 00000000 		.word	thSlowStd
 366 0164 00000000 		.word	thFastStdSum
 367 0168 00000000 		.word	thFastStdCurr
 368 016c 00000000 		.word	thFastStd
 369 0170 00000000 		.word	thSlowValue
 370 0174 00000000 		.word	thFastValue
 371 0178 00000000 		.word	thfi
 372 017c 00000000 		.word	thCnt
 373 0180 00000000 		.word	thFastBuffer
 374 0184 00000000 		.word	thSlowStdBuffer
 375 0188 00000000 		.word	thStdTemp
 376 018c 00000000 		.word	thFastStdBuffer
 377              		.cfi_endproc
 378              	.LFE64:
 379              		.size	calculateTh, .-calculateTh
 380              		.comm	thFastValue,2,2
 381              		.comm	thFastStd,2,2
 382              		.comm	thFastStdSum,4,4
 383              		.comm	thFastStdCurr,2,2
 384              		.comm	thFastStdBuffer,16,4
 385              		.comm	thFastMean,2,2
 386              		.comm	thFastSum,4,4
 387              		.comm	thfi,1,1
 388              		.comm	thFastBuffer,16,4
 389              		.comm	thCnt,2,2
 390              		.comm	thFlag,1,1
 391              		.comm	thSlowValue,2,2
 392              		.comm	thStdTemp,2,2
 393              		.comm	thSlowStd,2,2
 394              		.comm	thSlowStdSum,4,4
 395              		.comm	thSlowStdCurr,2,2
 396              		.comm	thSlowStdBuffer,64,4
 397              		.comm	thSlowMean,2,2
 398              		.comm	thSlowSum,4,4
 399              		.comm	thsi,1,1
 400              		.comm	thSlowBuffer,64,4
 401              		.comm	avgCurrSample,2,2
 402              		.comm	digipotCheckVal,1,1
 403              		.comm	digipotTargetVal,1,1
 404              		.comm	DMA_AVG_TD,1,4
 405              		.comm	DMA_AVG_Chan,1,1
 406              		.text
 407              	.Letext0:
 408              		.file 2 "c:\\program files (x86)\\cypress\\psoc creator\\4.1\\psoc creator\\import\\gnu\\arm\\5.4.
 409              		.file 3 "c:\\program files (x86)\\cypress\\psoc creator\\4.1\\psoc creator\\import\\gnu\\arm\\5.4.
 410              		.file 4 "Generated_Source\\PSoC5/cytypes.h"
 411              		.file 5 "Generated_Source\\PSoC5/core_cm3.h"
 412              		.file 6 "inputcontrol.h"
 413              		.file 7 "Generated_Source\\PSoC5/DMA_AVG_dma.h"
ARM GAS  C:\Users\dr\AppData\Local\Temp\ccB0tsWh.s 			page 10


 414              		.file 8 "Generated_Source\\PSoC5/CYDMAC.H"
 415              		.file 9 "Generated_Source\\PSoC5/DAC_SLOW.h"
 416              		.file 10 "Generated_Source\\PSoC5/DAC_FAST.h"
 417              		.file 11 "Generated_Source\\PSoC5/COMP_SLOW.h"
 418              		.file 12 "Generated_Source\\PSoC5/COMP_FAST.h"
 419              		.file 13 "c:\\program files (x86)\\cypress\\psoc creator\\4.1\\psoc creator\\import\\gnu\\arm\\5.4