ARM GAS  C:\Users\dr\AppData\Local\Temp\ccKmO4ii.s 			page 1


   1              		.syntax unified
   2              		.cpu cortex-m3
   3              		.fpu softvfp
   4              		.eabi_attribute 20, 1
   5              		.eabi_attribute 21, 1
   6              		.eabi_attribute 23, 3
   7              		.eabi_attribute 24, 1
   8              		.eabi_attribute 25, 1
   9              		.eabi_attribute 26, 1
  10              		.eabi_attribute 30, 1
  11              		.eabi_attribute 34, 1
  12              		.eabi_attribute 18, 4
  13              		.thumb
  14              		.syntax unified
  15              		.file	"DAC_FAST.c"
  16              		.text
  17              	.Ltext0:
  18              		.cfi_sections	.debug_frame
  19              		.section	.text.DAC_FAST_InitDma,"ax",%progbits
  20              		.align	2
  21              		.thumb
  22              		.thumb_func
  23              		.type	DAC_FAST_InitDma, %function
  24              	DAC_FAST_InitDma:
  25              	.LFB5:
  26              		.file 1 "Generated_Source\\PSoC5\\DAC_FAST.c"
   1:Generated_Source\PSoC5/DAC_FAST.c **** /*******************************************************************************
   2:Generated_Source\PSoC5/DAC_FAST.c **** * File Name: DAC_FAST.c
   3:Generated_Source\PSoC5/DAC_FAST.c **** * Version 2.10
   4:Generated_Source\PSoC5/DAC_FAST.c **** *
   5:Generated_Source\PSoC5/DAC_FAST.c **** * Description:
   6:Generated_Source\PSoC5/DAC_FAST.c **** *  This file provides the source code of APIs for the DVDAC component.
   7:Generated_Source\PSoC5/DAC_FAST.c **** *
   8:Generated_Source\PSoC5/DAC_FAST.c **** ********************************************************************************
   9:Generated_Source\PSoC5/DAC_FAST.c **** * Copyright 2013, Cypress Semiconductor Corporation.  All rights reserved.
  10:Generated_Source\PSoC5/DAC_FAST.c **** * You may use this file only in accordance with the license, terms, conditions,
  11:Generated_Source\PSoC5/DAC_FAST.c **** * disclaimers, and limitations in the end user license agreement accompanying
  12:Generated_Source\PSoC5/DAC_FAST.c **** * the software package with which this file was provided.
  13:Generated_Source\PSoC5/DAC_FAST.c **** *******************************************************************************/
  14:Generated_Source\PSoC5/DAC_FAST.c **** 
  15:Generated_Source\PSoC5/DAC_FAST.c **** #include "DAC_FAST.h"
  16:Generated_Source\PSoC5/DAC_FAST.c **** #include "DAC_FAST_VDAC8.h"
  17:Generated_Source\PSoC5/DAC_FAST.c **** #include "CyDmac.h"
  18:Generated_Source\PSoC5/DAC_FAST.c **** #include "DAC_FAST_DMA_dma.H"
  19:Generated_Source\PSoC5/DAC_FAST.c **** 
  20:Generated_Source\PSoC5/DAC_FAST.c **** #if(DAC_FAST_INTERNAL_CLOCK_USED)
  21:Generated_Source\PSoC5/DAC_FAST.c ****     #include "DAC_FAST_IntClock.h"
  22:Generated_Source\PSoC5/DAC_FAST.c **** #endif /* DAC_FAST_INTERNAL_CLOCK_USED */
  23:Generated_Source\PSoC5/DAC_FAST.c **** 
  24:Generated_Source\PSoC5/DAC_FAST.c **** 
  25:Generated_Source\PSoC5/DAC_FAST.c **** static uint8 DAC_FAST_ditheredValues[16u] = {0x00u, 0x00u, 0x00u, 0x00u, 0x00u, 0x00u, 0x00u, 0x00u
  26:Generated_Source\PSoC5/DAC_FAST.c ****                                              0x00u, 0x00u, 0x00u, 0x00u, 0x00u, 0x00u};
  27:Generated_Source\PSoC5/DAC_FAST.c **** 
  28:Generated_Source\PSoC5/DAC_FAST.c **** 
  29:Generated_Source\PSoC5/DAC_FAST.c **** uint8 DAC_FAST_initVar = 0u;
  30:Generated_Source\PSoC5/DAC_FAST.c **** 
  31:Generated_Source\PSoC5/DAC_FAST.c **** static uint8 DAC_FAST_dmaChan;
ARM GAS  C:\Users\dr\AppData\Local\Temp\ccKmO4ii.s 			page 2


  32:Generated_Source\PSoC5/DAC_FAST.c **** static uint8 DAC_FAST_dmaTd = CY_DMA_INVALID_TD;
  33:Generated_Source\PSoC5/DAC_FAST.c **** 
  34:Generated_Source\PSoC5/DAC_FAST.c **** static void DAC_FAST_InitDma(void)  ;
  35:Generated_Source\PSoC5/DAC_FAST.c **** 
  36:Generated_Source\PSoC5/DAC_FAST.c **** 
  37:Generated_Source\PSoC5/DAC_FAST.c **** /*******************************************************************************
  38:Generated_Source\PSoC5/DAC_FAST.c **** * Function Name: DAC_FAST_Init
  39:Generated_Source\PSoC5/DAC_FAST.c **** ********************************************************************************
  40:Generated_Source\PSoC5/DAC_FAST.c **** *
  41:Generated_Source\PSoC5/DAC_FAST.c **** * Summary:
  42:Generated_Source\PSoC5/DAC_FAST.c **** *  Initializes or restores the component according to the customizer Configure
  43:Generated_Source\PSoC5/DAC_FAST.c **** *  dialog settings. It is not necessary to call DAC_FAST_Init() because
  44:Generated_Source\PSoC5/DAC_FAST.c **** *  the DAC_FAST_Start() API calls this function and is the preferred
  45:Generated_Source\PSoC5/DAC_FAST.c **** *  method to begin component operation.
  46:Generated_Source\PSoC5/DAC_FAST.c **** *
  47:Generated_Source\PSoC5/DAC_FAST.c **** * Parameters:
  48:Generated_Source\PSoC5/DAC_FAST.c **** *  None
  49:Generated_Source\PSoC5/DAC_FAST.c **** *
  50:Generated_Source\PSoC5/DAC_FAST.c **** * Return:
  51:Generated_Source\PSoC5/DAC_FAST.c **** *  None
  52:Generated_Source\PSoC5/DAC_FAST.c **** *
  53:Generated_Source\PSoC5/DAC_FAST.c **** * Side Effects:
  54:Generated_Source\PSoC5/DAC_FAST.c **** *  All registers will be set to values according to the customizer Configure
  55:Generated_Source\PSoC5/DAC_FAST.c **** *  dialog.
  56:Generated_Source\PSoC5/DAC_FAST.c **** *
  57:Generated_Source\PSoC5/DAC_FAST.c **** * Global variables:
  58:Generated_Source\PSoC5/DAC_FAST.c **** *  None
  59:Generated_Source\PSoC5/DAC_FAST.c **** *
  60:Generated_Source\PSoC5/DAC_FAST.c **** *******************************************************************************/
  61:Generated_Source\PSoC5/DAC_FAST.c **** void DAC_FAST_Init(void) 
  62:Generated_Source\PSoC5/DAC_FAST.c **** {
  63:Generated_Source\PSoC5/DAC_FAST.c ****     DAC_FAST_VDAC8_Init();
  64:Generated_Source\PSoC5/DAC_FAST.c **** 
  65:Generated_Source\PSoC5/DAC_FAST.c ****     if(CY_DMA_INVALID_TD == DAC_FAST_dmaTd)
  66:Generated_Source\PSoC5/DAC_FAST.c ****     {
  67:Generated_Source\PSoC5/DAC_FAST.c ****         DAC_FAST_InitDma();
  68:Generated_Source\PSoC5/DAC_FAST.c ****     }
  69:Generated_Source\PSoC5/DAC_FAST.c **** }
  70:Generated_Source\PSoC5/DAC_FAST.c **** 
  71:Generated_Source\PSoC5/DAC_FAST.c **** 
  72:Generated_Source\PSoC5/DAC_FAST.c **** /*******************************************************************************
  73:Generated_Source\PSoC5/DAC_FAST.c **** * Function Name: DAC_FAST_Enable
  74:Generated_Source\PSoC5/DAC_FAST.c **** ********************************************************************************
  75:Generated_Source\PSoC5/DAC_FAST.c **** *
  76:Generated_Source\PSoC5/DAC_FAST.c **** * Summary:
  77:Generated_Source\PSoC5/DAC_FAST.c **** *  Activates the hardware and begins component operation. It is not necessary to
  78:Generated_Source\PSoC5/DAC_FAST.c **** *  call DAC_FAST_Enable() because the DAC_FAST_Start() API calls
  79:Generated_Source\PSoC5/DAC_FAST.c **** *  this function, which is the preferred method to begin component operation.
  80:Generated_Source\PSoC5/DAC_FAST.c **** *
  81:Generated_Source\PSoC5/DAC_FAST.c **** * Parameters:
  82:Generated_Source\PSoC5/DAC_FAST.c **** *  None
  83:Generated_Source\PSoC5/DAC_FAST.c **** *
  84:Generated_Source\PSoC5/DAC_FAST.c **** * Return:
  85:Generated_Source\PSoC5/DAC_FAST.c **** *  None
  86:Generated_Source\PSoC5/DAC_FAST.c **** *
  87:Generated_Source\PSoC5/DAC_FAST.c **** * Global variables:
  88:Generated_Source\PSoC5/DAC_FAST.c **** *  None
ARM GAS  C:\Users\dr\AppData\Local\Temp\ccKmO4ii.s 			page 3


  89:Generated_Source\PSoC5/DAC_FAST.c **** *
  90:Generated_Source\PSoC5/DAC_FAST.c **** *******************************************************************************/
  91:Generated_Source\PSoC5/DAC_FAST.c **** void DAC_FAST_Enable(void) 
  92:Generated_Source\PSoC5/DAC_FAST.c **** {
  93:Generated_Source\PSoC5/DAC_FAST.c ****     (void) CyDmaChEnable(DAC_FAST_dmaChan, 1u);
  94:Generated_Source\PSoC5/DAC_FAST.c **** 
  95:Generated_Source\PSoC5/DAC_FAST.c ****     #if(DAC_FAST_INTERNAL_CLOCK_USED)
  96:Generated_Source\PSoC5/DAC_FAST.c ****         DAC_FAST_IntClock_Start();
  97:Generated_Source\PSoC5/DAC_FAST.c ****     #endif /* DAC_FAST_INTERNAL_CLOCK_USED */
  98:Generated_Source\PSoC5/DAC_FAST.c **** 
  99:Generated_Source\PSoC5/DAC_FAST.c ****     DAC_FAST_VDAC8_Enable();
 100:Generated_Source\PSoC5/DAC_FAST.c **** }
 101:Generated_Source\PSoC5/DAC_FAST.c **** 
 102:Generated_Source\PSoC5/DAC_FAST.c **** 
 103:Generated_Source\PSoC5/DAC_FAST.c **** /*******************************************************************************
 104:Generated_Source\PSoC5/DAC_FAST.c **** * Function Name: DAC_FAST_Start
 105:Generated_Source\PSoC5/DAC_FAST.c **** ********************************************************************************
 106:Generated_Source\PSoC5/DAC_FAST.c **** *
 107:Generated_Source\PSoC5/DAC_FAST.c **** * Summary:
 108:Generated_Source\PSoC5/DAC_FAST.c **** *  Performs all of the required initialization for the component and enables
 109:Generated_Source\PSoC5/DAC_FAST.c **** *  power to the block. The first time the routine is executed, the component is
 110:Generated_Source\PSoC5/DAC_FAST.c **** *  initialized to the configured settings. When called to restart the DVDAC
 111:Generated_Source\PSoC5/DAC_FAST.c **** *  following a DAC_FAST_Stop() call, the current component parameter
 112:Generated_Source\PSoC5/DAC_FAST.c **** *  settings are retained.
 113:Generated_Source\PSoC5/DAC_FAST.c **** *
 114:Generated_Source\PSoC5/DAC_FAST.c **** * Parameters:
 115:Generated_Source\PSoC5/DAC_FAST.c **** *  None
 116:Generated_Source\PSoC5/DAC_FAST.c **** *
 117:Generated_Source\PSoC5/DAC_FAST.c **** * Return:
 118:Generated_Source\PSoC5/DAC_FAST.c **** *  None
 119:Generated_Source\PSoC5/DAC_FAST.c **** *
 120:Generated_Source\PSoC5/DAC_FAST.c **** * Side Effects:
 121:Generated_Source\PSoC5/DAC_FAST.c **** *  If the DAC_FAST_initVar variable is already set, this function only
 122:Generated_Source\PSoC5/DAC_FAST.c **** *  calls the DAC_FAST_Enable() function.
 123:Generated_Source\PSoC5/DAC_FAST.c **** *
 124:Generated_Source\PSoC5/DAC_FAST.c **** * Global variables:
 125:Generated_Source\PSoC5/DAC_FAST.c **** *  DAC_FAST_initVar - indicates whether the DVDAC has been initialized.
 126:Generated_Source\PSoC5/DAC_FAST.c **** *  The variable is initialized to 0 and set to 1 the first time DVDAC_Start()
 127:Generated_Source\PSoC5/DAC_FAST.c **** *  is called. This allows the component to restart without reinitialization
 128:Generated_Source\PSoC5/DAC_FAST.c **** *  after the first call to the DAC_FAST_Start() routine. If
 129:Generated_Source\PSoC5/DAC_FAST.c **** *  reinitialization of the component is required, then the
 130:Generated_Source\PSoC5/DAC_FAST.c **** *  DAC_FAST_Init() function can be called before the
 131:Generated_Source\PSoC5/DAC_FAST.c **** *  DAC_FAST_Start() or DAC_FAST_Enable() function.
 132:Generated_Source\PSoC5/DAC_FAST.c **** *
 133:Generated_Source\PSoC5/DAC_FAST.c **** *******************************************************************************/
 134:Generated_Source\PSoC5/DAC_FAST.c **** void DAC_FAST_Start(void) 
 135:Generated_Source\PSoC5/DAC_FAST.c **** {
 136:Generated_Source\PSoC5/DAC_FAST.c ****     /* Hardware initiazation only needs to occure the first time */
 137:Generated_Source\PSoC5/DAC_FAST.c ****     if(0u == DAC_FAST_initVar)
 138:Generated_Source\PSoC5/DAC_FAST.c ****     {
 139:Generated_Source\PSoC5/DAC_FAST.c ****         DAC_FAST_Init();
 140:Generated_Source\PSoC5/DAC_FAST.c ****         DAC_FAST_initVar = 1u;
 141:Generated_Source\PSoC5/DAC_FAST.c ****     }
 142:Generated_Source\PSoC5/DAC_FAST.c **** 
 143:Generated_Source\PSoC5/DAC_FAST.c ****     DAC_FAST_Enable();
 144:Generated_Source\PSoC5/DAC_FAST.c **** }
 145:Generated_Source\PSoC5/DAC_FAST.c **** 
ARM GAS  C:\Users\dr\AppData\Local\Temp\ccKmO4ii.s 			page 4


 146:Generated_Source\PSoC5/DAC_FAST.c **** 
 147:Generated_Source\PSoC5/DAC_FAST.c **** /*******************************************************************************
 148:Generated_Source\PSoC5/DAC_FAST.c **** * Function Name: DAC_FAST_Stop
 149:Generated_Source\PSoC5/DAC_FAST.c **** ********************************************************************************
 150:Generated_Source\PSoC5/DAC_FAST.c **** *
 151:Generated_Source\PSoC5/DAC_FAST.c **** * Summary:
 152:Generated_Source\PSoC5/DAC_FAST.c **** *  Stops the component and turns off the analog blocks in the DVDAC.
 153:Generated_Source\PSoC5/DAC_FAST.c **** *
 154:Generated_Source\PSoC5/DAC_FAST.c **** * Parameters:
 155:Generated_Source\PSoC5/DAC_FAST.c **** *  None
 156:Generated_Source\PSoC5/DAC_FAST.c **** *
 157:Generated_Source\PSoC5/DAC_FAST.c **** * Return:
 158:Generated_Source\PSoC5/DAC_FAST.c **** *  None
 159:Generated_Source\PSoC5/DAC_FAST.c **** *
 160:Generated_Source\PSoC5/DAC_FAST.c **** * Global variables:
 161:Generated_Source\PSoC5/DAC_FAST.c **** *  None
 162:Generated_Source\PSoC5/DAC_FAST.c **** *
 163:Generated_Source\PSoC5/DAC_FAST.c **** *******************************************************************************/
 164:Generated_Source\PSoC5/DAC_FAST.c **** void DAC_FAST_Stop(void) 
 165:Generated_Source\PSoC5/DAC_FAST.c **** {
 166:Generated_Source\PSoC5/DAC_FAST.c ****     #if(DAC_FAST_INTERNAL_CLOCK_USED)
 167:Generated_Source\PSoC5/DAC_FAST.c ****         DAC_FAST_IntClock_Stop();
 168:Generated_Source\PSoC5/DAC_FAST.c ****     #endif /* DAC_FAST_INTERNAL_CLOCK_USED */
 169:Generated_Source\PSoC5/DAC_FAST.c **** 
 170:Generated_Source\PSoC5/DAC_FAST.c ****     (void) CyDmaChDisable(DAC_FAST_dmaChan);
 171:Generated_Source\PSoC5/DAC_FAST.c ****     DAC_FAST_VDAC8_Stop();
 172:Generated_Source\PSoC5/DAC_FAST.c **** }
 173:Generated_Source\PSoC5/DAC_FAST.c **** 
 174:Generated_Source\PSoC5/DAC_FAST.c **** 
 175:Generated_Source\PSoC5/DAC_FAST.c **** /*******************************************************************************
 176:Generated_Source\PSoC5/DAC_FAST.c **** * Function Name: DAC_FAST_SetValue
 177:Generated_Source\PSoC5/DAC_FAST.c **** ********************************************************************************
 178:Generated_Source\PSoC5/DAC_FAST.c **** *
 179:Generated_Source\PSoC5/DAC_FAST.c **** * Summary:
 180:Generated_Source\PSoC5/DAC_FAST.c **** *  Sets the DVDACs output. The function populates the SRAM array based on the
 181:Generated_Source\PSoC5/DAC_FAST.c **** *  value and the resolution setting. That array is then transferred to the
 182:Generated_Source\PSoC5/DAC_FAST.c **** *  internal VDAC by DMA.
 183:Generated_Source\PSoC5/DAC_FAST.c **** *
 184:Generated_Source\PSoC5/DAC_FAST.c **** * Parameters:
 185:Generated_Source\PSoC5/DAC_FAST.c **** *  (uint16) value:  The maximum value will be dependent on the resolution
 186:Generated_Source\PSoC5/DAC_FAST.c **** *  selected:
 187:Generated_Source\PSoC5/DAC_FAST.c **** *   Resolution       Valid range
 188:Generated_Source\PSoC5/DAC_FAST.c **** *        9 bits       0x0 - 0x1FE
 189:Generated_Source\PSoC5/DAC_FAST.c **** *       10 bits       0x0 - 0x3FC
 190:Generated_Source\PSoC5/DAC_FAST.c **** *       11 bits       0x0 - 0x7F8
 191:Generated_Source\PSoC5/DAC_FAST.c **** *       12 bits       0x0 - 0xFF0
 192:Generated_Source\PSoC5/DAC_FAST.c **** *
 193:Generated_Source\PSoC5/DAC_FAST.c **** *  This value includes an integer portion and a fractional portion that varies
 194:Generated_Source\PSoC5/DAC_FAST.c **** *  depending on number of bits of resolution:
 195:Generated_Source\PSoC5/DAC_FAST.c **** *   - 9-bits:  1 fractional bit
 196:Generated_Source\PSoC5/DAC_FAST.c **** *   - 10-bits: 2 fractional bits
 197:Generated_Source\PSoC5/DAC_FAST.c **** *   - 11-bits: 3 fractional bits
 198:Generated_Source\PSoC5/DAC_FAST.c **** *   - 12-bits: 4 fractional bits
 199:Generated_Source\PSoC5/DAC_FAST.c **** *
 200:Generated_Source\PSoC5/DAC_FAST.c **** * Return:
 201:Generated_Source\PSoC5/DAC_FAST.c **** *  None
 202:Generated_Source\PSoC5/DAC_FAST.c **** *
ARM GAS  C:\Users\dr\AppData\Local\Temp\ccKmO4ii.s 			page 5


 203:Generated_Source\PSoC5/DAC_FAST.c **** * Global variables:
 204:Generated_Source\PSoC5/DAC_FAST.c **** *  None
 205:Generated_Source\PSoC5/DAC_FAST.c **** *
 206:Generated_Source\PSoC5/DAC_FAST.c **** *******************************************************************************/
 207:Generated_Source\PSoC5/DAC_FAST.c **** void DAC_FAST_SetValue(uint16 value) 
 208:Generated_Source\PSoC5/DAC_FAST.c **** {
 209:Generated_Source\PSoC5/DAC_FAST.c ****     uint8  lowCount  = (uint8)(value & DAC_FAST_FRACTIONAL_PORTION_MASK);
 210:Generated_Source\PSoC5/DAC_FAST.c ****     uint8 highCount  = (uint8)(value >> DAC_FAST_INTEGER_PORTION_SHIFT);
 211:Generated_Source\PSoC5/DAC_FAST.c ****     uint8 i;
 212:Generated_Source\PSoC5/DAC_FAST.c **** 
 213:Generated_Source\PSoC5/DAC_FAST.c **** 
 214:Generated_Source\PSoC5/DAC_FAST.c ****     CYASSERT(value <= DAC_FAST_DVDAC_MAX_VALUE);
 215:Generated_Source\PSoC5/DAC_FAST.c **** 
 216:Generated_Source\PSoC5/DAC_FAST.c ****     if (DAC_FAST_INTEGER_PORTION_MAX_VALUE == highCount)
 217:Generated_Source\PSoC5/DAC_FAST.c ****     {
 218:Generated_Source\PSoC5/DAC_FAST.c ****         for (i = 0u; i < DAC_FAST_DITHERED_ARRAY_SIZE; i++)
 219:Generated_Source\PSoC5/DAC_FAST.c ****         {
 220:Generated_Source\PSoC5/DAC_FAST.c ****             DAC_FAST_ditheredValues[i] = DAC_FAST_INTEGER_PORTION_MAX_VALUE;
 221:Generated_Source\PSoC5/DAC_FAST.c ****         }
 222:Generated_Source\PSoC5/DAC_FAST.c ****     }
 223:Generated_Source\PSoC5/DAC_FAST.c ****     else
 224:Generated_Source\PSoC5/DAC_FAST.c ****     {
 225:Generated_Source\PSoC5/DAC_FAST.c ****         for(i = 0u; i < DAC_FAST_DITHERED_ARRAY_SIZE; i++)
 226:Generated_Source\PSoC5/DAC_FAST.c ****         {
 227:Generated_Source\PSoC5/DAC_FAST.c ****             if(i < (DAC_FAST_DITHERED_ARRAY_SIZE - lowCount))
 228:Generated_Source\PSoC5/DAC_FAST.c ****             {
 229:Generated_Source\PSoC5/DAC_FAST.c ****                 DAC_FAST_ditheredValues[i] = highCount;
 230:Generated_Source\PSoC5/DAC_FAST.c ****             }
 231:Generated_Source\PSoC5/DAC_FAST.c ****             else
 232:Generated_Source\PSoC5/DAC_FAST.c ****             {
 233:Generated_Source\PSoC5/DAC_FAST.c ****                 DAC_FAST_ditheredValues[i] = highCount + 1u;
 234:Generated_Source\PSoC5/DAC_FAST.c ****             }
 235:Generated_Source\PSoC5/DAC_FAST.c ****         }
 236:Generated_Source\PSoC5/DAC_FAST.c ****     }
 237:Generated_Source\PSoC5/DAC_FAST.c **** }
 238:Generated_Source\PSoC5/DAC_FAST.c **** 
 239:Generated_Source\PSoC5/DAC_FAST.c **** 
 240:Generated_Source\PSoC5/DAC_FAST.c **** /*******************************************************************************
 241:Generated_Source\PSoC5/DAC_FAST.c **** * Function Name: DAC_FAST_InitDma
 242:Generated_Source\PSoC5/DAC_FAST.c **** ********************************************************************************
 243:Generated_Source\PSoC5/DAC_FAST.c **** *
 244:Generated_Source\PSoC5/DAC_FAST.c **** * Summary:
 245:Generated_Source\PSoC5/DAC_FAST.c **** *  Configures a DMA transfer of channel values from memory to VDAC.
 246:Generated_Source\PSoC5/DAC_FAST.c **** *
 247:Generated_Source\PSoC5/DAC_FAST.c **** * Parameters:
 248:Generated_Source\PSoC5/DAC_FAST.c **** *  None
 249:Generated_Source\PSoC5/DAC_FAST.c **** *
 250:Generated_Source\PSoC5/DAC_FAST.c **** * Return:
 251:Generated_Source\PSoC5/DAC_FAST.c **** *  None
 252:Generated_Source\PSoC5/DAC_FAST.c **** *
 253:Generated_Source\PSoC5/DAC_FAST.c **** *******************************************************************************/
 254:Generated_Source\PSoC5/DAC_FAST.c **** static void DAC_FAST_InitDma(void)  
 255:Generated_Source\PSoC5/DAC_FAST.c **** {
  27              		.loc 1 255 0
  28              		.cfi_startproc
  29              		@ args = 0, pretend = 0, frame = 0
  30              		@ frame_needed = 0, uses_anonymous_args = 0
ARM GAS  C:\Users\dr\AppData\Local\Temp\ccKmO4ii.s 			page 6


  31 0000 70B5     		push	{r4, r5, r6, lr}
  32              		.cfi_def_cfa_offset 16
  33              		.cfi_offset 4, -16
  34              		.cfi_offset 5, -12
  35              		.cfi_offset 6, -8
  36              		.cfi_offset 14, -4
 256:Generated_Source\PSoC5/DAC_FAST.c ****     /***************************************************************************
 257:Generated_Source\PSoC5/DAC_FAST.c ****     * Transfers channel values from SRAM to VDAC register. One byte transfer,
 258:Generated_Source\PSoC5/DAC_FAST.c ****     * each burst requires a request.
 259:Generated_Source\PSoC5/DAC_FAST.c ****     ***************************************************************************/
 260:Generated_Source\PSoC5/DAC_FAST.c ****     DAC_FAST_dmaChan = DAC_FAST_DMA_DmaInitialize(
  37              		.loc 1 260 0
  38 0002 4FF48043 		mov	r3, #16384
  39 0006 41F6FF72 		movw	r2, #8191
  40 000a 0121     		movs	r1, #1
  41 000c 0846     		mov	r0, r1
  42 000e FFF7FEFF 		bl	DAC_FAST_DMA_DmaInitialize
  43              	.LVL0:
  44 0012 0C4E     		ldr	r6, .L3
  45 0014 3546     		mov	r5, r6
  46 0016 05F8040B 		strb	r0, [r5], #4
 261:Generated_Source\PSoC5/DAC_FAST.c ****                                     DAC_FAST_DMA_BYTES_PER_BURST,
 262:Generated_Source\PSoC5/DAC_FAST.c ****                                     DAC_FAST_DMA_REQUEST_PER_BURST,
 263:Generated_Source\PSoC5/DAC_FAST.c ****                                     HI16(DAC_FAST_DMA_SRC_BASE),
 264:Generated_Source\PSoC5/DAC_FAST.c ****                                     HI16(DAC_FAST_DMA_DST_BASE));
 265:Generated_Source\PSoC5/DAC_FAST.c **** 
 266:Generated_Source\PSoC5/DAC_FAST.c ****     DAC_FAST_dmaTd = CyDmaTdAllocate();
  47              		.loc 1 266 0
  48 001a FFF7FEFF 		bl	CyDmaTdAllocate
  49              	.LVL1:
  50 001e 0246     		mov	r2, r0
  51 0020 094C     		ldr	r4, .L3+4
  52 0022 2070     		strb	r0, [r4]
 267:Generated_Source\PSoC5/DAC_FAST.c **** 
 268:Generated_Source\PSoC5/DAC_FAST.c **** 
 269:Generated_Source\PSoC5/DAC_FAST.c ****     /***************************************************************************
 270:Generated_Source\PSoC5/DAC_FAST.c ****     * One TD looping on itself, increment the source address, but not the
 271:Generated_Source\PSoC5/DAC_FAST.c ****     * destination address.
 272:Generated_Source\PSoC5/DAC_FAST.c ****     ***************************************************************************/
 273:Generated_Source\PSoC5/DAC_FAST.c ****     (void) CyDmaTdSetConfiguration( DAC_FAST_dmaTd,
  53              		.loc 1 273 0
  54 0024 0123     		movs	r3, #1
  55 0026 1021     		movs	r1, #16
  56 0028 FFF7FEFF 		bl	CyDmaTdSetConfiguration
  57              	.LVL2:
 274:Generated_Source\PSoC5/DAC_FAST.c ****                                     DAC_FAST_DITHERED_ARRAY_SIZE,
 275:Generated_Source\PSoC5/DAC_FAST.c ****                                     DAC_FAST_dmaTd,
 276:Generated_Source\PSoC5/DAC_FAST.c ****                                     (uint8) CY_DMA_TD_INC_SRC_ADR);
 277:Generated_Source\PSoC5/DAC_FAST.c **** 
 278:Generated_Source\PSoC5/DAC_FAST.c ****     /* Transfers the value for each channel from memory to VDAC */
 279:Generated_Source\PSoC5/DAC_FAST.c ****     (void) CyDmaTdSetAddress(   DAC_FAST_dmaTd,
  58              		.loc 1 279 0
  59 002c 45F68132 		movw	r2, #23425
  60 0030 A9B2     		uxth	r1, r5
  61 0032 2078     		ldrb	r0, [r4]	@ zero_extendqisi2
  62 0034 FFF7FEFF 		bl	CyDmaTdSetAddress
  63              	.LVL3:
ARM GAS  C:\Users\dr\AppData\Local\Temp\ccKmO4ii.s 			page 7


 280:Generated_Source\PSoC5/DAC_FAST.c ****                                 LO16((uint32)DAC_FAST_ditheredValues),
 281:Generated_Source\PSoC5/DAC_FAST.c ****                                 LO16((uint32)DAC_FAST_VDAC8_Data_PTR));
 282:Generated_Source\PSoC5/DAC_FAST.c **** 
 283:Generated_Source\PSoC5/DAC_FAST.c ****     (void) CyDmaChSetInitialTd(DAC_FAST_dmaChan, DAC_FAST_dmaTd);
  64              		.loc 1 283 0
  65 0038 2178     		ldrb	r1, [r4]	@ zero_extendqisi2
  66 003a 3078     		ldrb	r0, [r6]	@ zero_extendqisi2
  67 003c FFF7FEFF 		bl	CyDmaChSetInitialTd
  68              	.LVL4:
  69 0040 70BD     		pop	{r4, r5, r6, pc}
  70              	.L4:
  71 0042 00BF     		.align	2
  72              	.L3:
  73 0044 00000000 		.word	.LANCHOR0
  74 0048 00000000 		.word	.LANCHOR1
  75              		.cfi_endproc
  76              	.LFE5:
  77              		.size	DAC_FAST_InitDma, .-DAC_FAST_InitDma
  78              		.section	.text.DAC_FAST_Init,"ax",%progbits
  79              		.align	2
  80              		.global	DAC_FAST_Init
  81              		.thumb
  82              		.thumb_func
  83              		.type	DAC_FAST_Init, %function
  84              	DAC_FAST_Init:
  85              	.LFB0:
  62:Generated_Source\PSoC5/DAC_FAST.c ****     DAC_FAST_VDAC8_Init();
  86              		.loc 1 62 0
  87              		.cfi_startproc
  88              		@ args = 0, pretend = 0, frame = 0
  89              		@ frame_needed = 0, uses_anonymous_args = 0
  90 0000 08B5     		push	{r3, lr}
  91              		.cfi_def_cfa_offset 8
  92              		.cfi_offset 3, -8
  93              		.cfi_offset 14, -4
  63:Generated_Source\PSoC5/DAC_FAST.c **** 
  94              		.loc 1 63 0
  95 0002 FFF7FEFF 		bl	DAC_FAST_VDAC8_Init
  96              	.LVL5:
  65:Generated_Source\PSoC5/DAC_FAST.c ****     {
  97              		.loc 1 65 0
  98 0006 034B     		ldr	r3, .L8
  99 0008 1B78     		ldrb	r3, [r3]	@ zero_extendqisi2
 100 000a FF2B     		cmp	r3, #255
 101 000c 01D1     		bne	.L5
  67:Generated_Source\PSoC5/DAC_FAST.c ****     }
 102              		.loc 1 67 0
 103 000e FFF7FEFF 		bl	DAC_FAST_InitDma
 104              	.LVL6:
 105              	.L5:
 106 0012 08BD     		pop	{r3, pc}
 107              	.L9:
 108              		.align	2
 109              	.L8:
 110 0014 00000000 		.word	.LANCHOR1
 111              		.cfi_endproc
 112              	.LFE0:
ARM GAS  C:\Users\dr\AppData\Local\Temp\ccKmO4ii.s 			page 8


 113              		.size	DAC_FAST_Init, .-DAC_FAST_Init
 114              		.section	.text.DAC_FAST_Enable,"ax",%progbits
 115              		.align	2
 116              		.global	DAC_FAST_Enable
 117              		.thumb
 118              		.thumb_func
 119              		.type	DAC_FAST_Enable, %function
 120              	DAC_FAST_Enable:
 121              	.LFB1:
  92:Generated_Source\PSoC5/DAC_FAST.c ****     (void) CyDmaChEnable(DAC_FAST_dmaChan, 1u);
 122              		.loc 1 92 0
 123              		.cfi_startproc
 124              		@ args = 0, pretend = 0, frame = 0
 125              		@ frame_needed = 0, uses_anonymous_args = 0
 126 0000 08B5     		push	{r3, lr}
 127              		.cfi_def_cfa_offset 8
 128              		.cfi_offset 3, -8
 129              		.cfi_offset 14, -4
  93:Generated_Source\PSoC5/DAC_FAST.c **** 
 130              		.loc 1 93 0
 131 0002 0121     		movs	r1, #1
 132 0004 044B     		ldr	r3, .L12
 133 0006 1878     		ldrb	r0, [r3]	@ zero_extendqisi2
 134 0008 FFF7FEFF 		bl	CyDmaChEnable
 135              	.LVL7:
  96:Generated_Source\PSoC5/DAC_FAST.c ****     #endif /* DAC_FAST_INTERNAL_CLOCK_USED */
 136              		.loc 1 96 0
 137 000c FFF7FEFF 		bl	DAC_FAST_IntClock_Start
 138              	.LVL8:
  99:Generated_Source\PSoC5/DAC_FAST.c **** }
 139              		.loc 1 99 0
 140 0010 FFF7FEFF 		bl	DAC_FAST_VDAC8_Enable
 141              	.LVL9:
 142 0014 08BD     		pop	{r3, pc}
 143              	.L13:
 144 0016 00BF     		.align	2
 145              	.L12:
 146 0018 00000000 		.word	.LANCHOR0
 147              		.cfi_endproc
 148              	.LFE1:
 149              		.size	DAC_FAST_Enable, .-DAC_FAST_Enable
 150              		.section	.text.DAC_FAST_Start,"ax",%progbits
 151              		.align	2
 152              		.global	DAC_FAST_Start
 153              		.thumb
 154              		.thumb_func
 155              		.type	DAC_FAST_Start, %function
 156              	DAC_FAST_Start:
 157              	.LFB2:
 135:Generated_Source\PSoC5/DAC_FAST.c ****     /* Hardware initiazation only needs to occure the first time */
 158              		.loc 1 135 0
 159              		.cfi_startproc
 160              		@ args = 0, pretend = 0, frame = 0
 161              		@ frame_needed = 0, uses_anonymous_args = 0
 162 0000 08B5     		push	{r3, lr}
 163              		.cfi_def_cfa_offset 8
 164              		.cfi_offset 3, -8
ARM GAS  C:\Users\dr\AppData\Local\Temp\ccKmO4ii.s 			page 9


 165              		.cfi_offset 14, -4
 137:Generated_Source\PSoC5/DAC_FAST.c ****     {
 166              		.loc 1 137 0
 167 0002 054B     		ldr	r3, .L17
 168 0004 1B7D     		ldrb	r3, [r3, #20]	@ zero_extendqisi2
 169 0006 23B9     		cbnz	r3, .L15
 139:Generated_Source\PSoC5/DAC_FAST.c ****         DAC_FAST_initVar = 1u;
 170              		.loc 1 139 0
 171 0008 FFF7FEFF 		bl	DAC_FAST_Init
 172              	.LVL10:
 140:Generated_Source\PSoC5/DAC_FAST.c ****     }
 173              		.loc 1 140 0
 174 000c 0122     		movs	r2, #1
 175 000e 024B     		ldr	r3, .L17
 176 0010 1A75     		strb	r2, [r3, #20]
 177              	.L15:
 143:Generated_Source\PSoC5/DAC_FAST.c **** }
 178              		.loc 1 143 0
 179 0012 FFF7FEFF 		bl	DAC_FAST_Enable
 180              	.LVL11:
 181 0016 08BD     		pop	{r3, pc}
 182              	.L18:
 183              		.align	2
 184              	.L17:
 185 0018 00000000 		.word	.LANCHOR0
 186              		.cfi_endproc
 187              	.LFE2:
 188              		.size	DAC_FAST_Start, .-DAC_FAST_Start
 189              		.section	.text.DAC_FAST_Stop,"ax",%progbits
 190              		.align	2
 191              		.global	DAC_FAST_Stop
 192              		.thumb
 193              		.thumb_func
 194              		.type	DAC_FAST_Stop, %function
 195              	DAC_FAST_Stop:
 196              	.LFB3:
 165:Generated_Source\PSoC5/DAC_FAST.c ****     #if(DAC_FAST_INTERNAL_CLOCK_USED)
 197              		.loc 1 165 0
 198              		.cfi_startproc
 199              		@ args = 0, pretend = 0, frame = 0
 200              		@ frame_needed = 0, uses_anonymous_args = 0
 201 0000 08B5     		push	{r3, lr}
 202              		.cfi_def_cfa_offset 8
 203              		.cfi_offset 3, -8
 204              		.cfi_offset 14, -4
 167:Generated_Source\PSoC5/DAC_FAST.c ****     #endif /* DAC_FAST_INTERNAL_CLOCK_USED */
 205              		.loc 1 167 0
 206 0002 FFF7FEFF 		bl	DAC_FAST_IntClock_Stop
 207              	.LVL12:
 170:Generated_Source\PSoC5/DAC_FAST.c ****     DAC_FAST_VDAC8_Stop();
 208              		.loc 1 170 0
 209 0006 034B     		ldr	r3, .L21
 210 0008 1878     		ldrb	r0, [r3]	@ zero_extendqisi2
 211 000a FFF7FEFF 		bl	CyDmaChDisable
 212              	.LVL13:
 171:Generated_Source\PSoC5/DAC_FAST.c **** }
 213              		.loc 1 171 0
ARM GAS  C:\Users\dr\AppData\Local\Temp\ccKmO4ii.s 			page 10


 214 000e FFF7FEFF 		bl	DAC_FAST_VDAC8_Stop
 215              	.LVL14:
 216 0012 08BD     		pop	{r3, pc}
 217              	.L22:
 218              		.align	2
 219              	.L21:
 220 0014 00000000 		.word	.LANCHOR0
 221              		.cfi_endproc
 222              	.LFE3:
 223              		.size	DAC_FAST_Stop, .-DAC_FAST_Stop
 224              		.section	.text.DAC_FAST_SetValue,"ax",%progbits
 225              		.align	2
 226              		.global	DAC_FAST_SetValue
 227              		.thumb
 228              		.thumb_func
 229              		.type	DAC_FAST_SetValue, %function
 230              	DAC_FAST_SetValue:
 231              	.LFB4:
 208:Generated_Source\PSoC5/DAC_FAST.c ****     uint8  lowCount  = (uint8)(value & DAC_FAST_FRACTIONAL_PORTION_MASK);
 232              		.loc 1 208 0
 233              		.cfi_startproc
 234              		@ args = 0, pretend = 0, frame = 0
 235              		@ frame_needed = 0, uses_anonymous_args = 0
 236              	.LVL15:
 237 0000 38B5     		push	{r3, r4, r5, lr}
 238              		.cfi_def_cfa_offset 16
 239              		.cfi_offset 3, -16
 240              		.cfi_offset 4, -12
 241              		.cfi_offset 5, -8
 242              		.cfi_offset 14, -4
 209:Generated_Source\PSoC5/DAC_FAST.c ****     uint8 highCount  = (uint8)(value >> DAC_FAST_INTEGER_PORTION_SHIFT);
 243              		.loc 1 209 0
 244 0002 00F00F05 		and	r5, r0, #15
 245              	.LVL16:
 210:Generated_Source\PSoC5/DAC_FAST.c ****     uint8 i;
 246              		.loc 1 210 0
 247 0006 C0F30714 		ubfx	r4, r0, #4, #8
 248              	.LVL17:
 214:Generated_Source\PSoC5/DAC_FAST.c **** 
 249              		.loc 1 214 0
 250 000a B0F57F6F 		cmp	r0, #4080
 251 000e 02D9     		bls	.L24
 214:Generated_Source\PSoC5/DAC_FAST.c **** 
 252              		.loc 1 214 0 is_stmt 0 discriminator 1
 253 0010 0020     		movs	r0, #0
 254              	.LVL18:
 255 0012 FFF7FEFF 		bl	CyHalt
 256              	.LVL19:
 257              	.L24:
 216:Generated_Source\PSoC5/DAC_FAST.c ****     {
 258              		.loc 1 216 0 is_stmt 1
 259 0016 FF2C     		cmp	r4, #255
 260 0018 08D0     		beq	.L32
 261 001a 0023     		movs	r3, #0
 262 001c 18E0     		b	.L26
 263              	.LVL20:
 264              	.L27:
ARM GAS  C:\Users\dr\AppData\Local\Temp\ccKmO4ii.s 			page 11


 220:Generated_Source\PSoC5/DAC_FAST.c ****         }
 265              		.loc 1 220 0 discriminator 3
 266 001e 0E4A     		ldr	r2, .L34
 267 0020 1A44     		add	r2, r2, r3
 268 0022 FF21     		movs	r1, #255
 269 0024 1171     		strb	r1, [r2, #4]
 218:Generated_Source\PSoC5/DAC_FAST.c ****         {
 270              		.loc 1 218 0 discriminator 3
 271 0026 0133     		adds	r3, r3, #1
 272              	.LVL21:
 273 0028 DBB2     		uxtb	r3, r3
 274              	.LVL22:
 275 002a 00E0     		b	.L25
 276              	.LVL23:
 277              	.L32:
 278 002c 0023     		movs	r3, #0
 279              	.L25:
 280              	.LVL24:
 218:Generated_Source\PSoC5/DAC_FAST.c ****         {
 281              		.loc 1 218 0 is_stmt 0 discriminator 1
 282 002e 0F2B     		cmp	r3, #15
 283 0030 F5D9     		bls	.L27
 284 0032 38BD     		pop	{r3, r4, r5, pc}
 285              	.LVL25:
 286              	.L31:
 227:Generated_Source\PSoC5/DAC_FAST.c ****             {
 287              		.loc 1 227 0 is_stmt 1
 288 0034 C5F11002 		rsb	r2, r5, #16
 289 0038 9342     		cmp	r3, r2
 290 003a 03DA     		bge	.L29
 229:Generated_Source\PSoC5/DAC_FAST.c ****             }
 291              		.loc 1 229 0
 292 003c 064A     		ldr	r2, .L34
 293 003e 1A44     		add	r2, r2, r3
 294 0040 1471     		strb	r4, [r2, #4]
 295 0042 03E0     		b	.L30
 296              	.L29:
 233:Generated_Source\PSoC5/DAC_FAST.c ****             }
 297              		.loc 1 233 0
 298 0044 044A     		ldr	r2, .L34
 299 0046 1A44     		add	r2, r2, r3
 300 0048 611C     		adds	r1, r4, #1
 301 004a 1171     		strb	r1, [r2, #4]
 302              	.L30:
 225:Generated_Source\PSoC5/DAC_FAST.c ****         {
 303              		.loc 1 225 0 discriminator 2
 304 004c 0133     		adds	r3, r3, #1
 305              	.LVL26:
 306 004e DBB2     		uxtb	r3, r3
 307              	.LVL27:
 308              	.L26:
 225:Generated_Source\PSoC5/DAC_FAST.c ****         {
 309              		.loc 1 225 0 is_stmt 0 discriminator 1
 310 0050 0F2B     		cmp	r3, #15
 311 0052 EFD9     		bls	.L31
 312 0054 38BD     		pop	{r3, r4, r5, pc}
 313              	.LVL28:
ARM GAS  C:\Users\dr\AppData\Local\Temp\ccKmO4ii.s 			page 12


 314              	.L35:
 315 0056 00BF     		.align	2
 316              	.L34:
 317 0058 00000000 		.word	.LANCHOR0
 318              		.cfi_endproc
 319              	.LFE4:
 320              		.size	DAC_FAST_SetValue, .-DAC_FAST_SetValue
 321              		.global	DAC_FAST_initVar
 322              		.data
 323              		.set	.LANCHOR1,. + 0
 324              		.type	DAC_FAST_dmaTd, %object
 325              		.size	DAC_FAST_dmaTd, 1
 326              	DAC_FAST_dmaTd:
 327 0000 FF       		.byte	-1
 328              		.bss
 329              		.align	2
 330              		.set	.LANCHOR0,. + 0
 331              		.type	DAC_FAST_dmaChan, %object
 332              		.size	DAC_FAST_dmaChan, 1
 333              	DAC_FAST_dmaChan:
 334 0000 00       		.space	1
 335 0001 000000   		.space	3
 336              		.type	DAC_FAST_ditheredValues, %object
 337              		.size	DAC_FAST_ditheredValues, 16
 338              	DAC_FAST_ditheredValues:
 339 0004 00000000 		.space	16
 339      00000000 
 339      00000000 
 339      00000000 
 340              		.type	DAC_FAST_initVar, %object
 341              		.size	DAC_FAST_initVar, 1
 342              	DAC_FAST_initVar:
 343 0014 00       		.space	1
 344              		.text
 345              	.Letext0:
 346              		.file 2 "Generated_Source\\PSoC5\\cytypes.h"
 347              		.file 3 "Generated_Source\\PSoC5\\DAC_FAST_DMA_dma.H"
 348              		.file 4 "Generated_Source\\PSoC5\\CyDmac.h"
 349              		.file 5 "Generated_Source\\PSoC5\\DAC_FAST_VDAC8.h"
 350              		.file 6 "Generated_Source\\PSoC5\\DAC_FAST_IntClock.h"
 351              		.file 7 "Generated_Source\\PSoC5\\CyLib.h"