ARM GAS  C:\Users\dr\AppData\Local\Temp\cclwAET6.s 			page 1


   1              		.syntax unified
   2              		.cpu cortex-m3
   3              		.fpu softvfp
   4              		.eabi_attribute 20, 1
   5              		.eabi_attribute 21, 1
   6              		.eabi_attribute 23, 3
   7              		.eabi_attribute 24, 1
   8              		.eabi_attribute 25, 1
   9              		.eabi_attribute 26, 1
  10              		.eabi_attribute 30, 1
  11              		.eabi_attribute 34, 1
  12              		.eabi_attribute 18, 4
  13              		.thumb
  14              		.syntax unified
  15              		.file	"dlm.c"
  16              		.text
  17              	.Ltext0:
  18              		.cfi_sections	.debug_frame
  19              		.section	.text.send_device_id,"ax",%progbits
  20              		.align	2
  21              		.global	send_device_id
  22              		.thumb
  23              		.thumb_func
  24              		.type	send_device_id, %function
  25              	send_device_id:
  26              	.LFB64:
  27              		.file 1 "dlm.c"
   1:dlm.c         **** /* ========================================
   2:dlm.c         ****  *
   3:dlm.c         ****  * SHW - Visible light Communication Controller
   4:dlm.c         ****  * Bjarki Johannsson 2017
   5:dlm.c         ****  * Open Source
   6:dlm.c         ****  *
   7:dlm.c         ****  *
   8:dlm.c         ****  * ========================================
   9:dlm.c         **** */
  10:dlm.c         **** 
  11:dlm.c         **** #include "dlm.h"
  12:dlm.c         **** 
  13:dlm.c         **** void INIT_DLM() {
  14:dlm.c         ****     int i, j;
  15:dlm.c         **** //    for (i=0; i<3; i++) {
  16:dlm.c         **** //        for (j=0; j<3; j++) {
  17:dlm.c         **** //            routingTable[i].links[j].node = 0;
  18:dlm.c         **** //            routingTable[i].links[j].noise = 0;
  19:dlm.c         **** //            routingTable[i].links[j].mod_type_allowed = 0;
  20:dlm.c         **** //        }
  21:dlm.c         **** //    }
  22:dlm.c         ****     CyGetUniqueId(&deviceID[0]);
  23:dlm.c         ****     set_address();
  24:dlm.c         **** }   
  25:dlm.c         **** 
  26:dlm.c         **** void send_device_id() {
  28              		.loc 1 26 0
  29              		.cfi_startproc
  30              		@ args = 0, pretend = 0, frame = 8
  31              		@ frame_needed = 0, uses_anonymous_args = 0
ARM GAS  C:\Users\dr\AppData\Local\Temp\cclwAET6.s 			page 2


  32 0000 00B5     		push	{lr}
  33              		.cfi_def_cfa_offset 4
  34              		.cfi_offset 14, -4
  35 0002 83B0     		sub	sp, sp, #12
  36              		.cfi_def_cfa_offset 16
  27:dlm.c         ****     uint8 id[8];
  28:dlm.c         ****     deviceID[0] = 9;
  37              		.loc 1 28 0
  38 0004 184A     		ldr	r2, .L6
  39 0006 0921     		movs	r1, #9
  40 0008 1160     		str	r1, [r2]
  29:dlm.c         ****     id[0] = (deviceID[0] >> 24) & 0xFF;
  41              		.loc 1 29 0
  42 000a 0023     		movs	r3, #0
  43 000c 8DF80030 		strb	r3, [sp]
  30:dlm.c         ****     id[1] = (deviceID[0] >> 16) & 0xFF;
  44              		.loc 1 30 0
  45 0010 8DF80130 		strb	r3, [sp, #1]
  31:dlm.c         ****     id[2] = (deviceID[0] >> 8) & 0xFF;
  46              		.loc 1 31 0
  47 0014 8DF80230 		strb	r3, [sp, #2]
  32:dlm.c         ****     id[3] = deviceID[0] & 0xFF;
  48              		.loc 1 32 0
  49 0018 8DF80310 		strb	r1, [sp, #3]
  33:dlm.c         ****     id[4] = ((deviceID[1]) >> 24) & 0xFF;
  50              		.loc 1 33 0
  51 001c 5368     		ldr	r3, [r2, #4]
  52 001e 1A0E     		lsrs	r2, r3, #24
  53 0020 8DF80420 		strb	r2, [sp, #4]
  34:dlm.c         ****     id[5] = ((deviceID[1]) >> 16) & 0xFF;
  54              		.loc 1 34 0
  55 0024 1A0C     		lsrs	r2, r3, #16
  56 0026 8DF80520 		strb	r2, [sp, #5]
  35:dlm.c         ****     id[6] = ((deviceID[1]) >> 8) & 0xFF;
  57              		.loc 1 35 0
  58 002a 1A0A     		lsrs	r2, r3, #8
  59 002c 8DF80620 		strb	r2, [sp, #6]
  36:dlm.c         ****     id[7] = (deviceID[1]) & 0xFF;
  60              		.loc 1 36 0
  61 0030 8DF80730 		strb	r3, [sp, #7]
  62              	.L2:
  63              	.LBB2:
  37:dlm.c         ****     
  38:dlm.c         ****     while(USBUART_1_CDCIsReady() == 0u);
  64              		.loc 1 38 0 discriminator 1
  65 0034 FFF7FEFF 		bl	USBUART_1_CDCIsReady
  66              	.LVL0:
  67 0038 0028     		cmp	r0, #0
  68 003a FBD0     		beq	.L2
  69              	.LBE2:
  39:dlm.c         ****     USBUART_1_PutString("ID:");       /* Send data back to PC */
  70              		.loc 1 39 0
  71 003c 0B48     		ldr	r0, .L6+4
  72 003e FFF7FEFF 		bl	USBUART_1_PutString
  73              	.LVL1:
  74              	.L3:
  75              	.LBB3:
ARM GAS  C:\Users\dr\AppData\Local\Temp\cclwAET6.s 			page 3


  40:dlm.c         ****     while(USBUART_1_CDCIsReady() == 0u);
  76              		.loc 1 40 0 discriminator 1
  77 0042 FFF7FEFF 		bl	USBUART_1_CDCIsReady
  78              	.LVL2:
  79 0046 0028     		cmp	r0, #0
  80 0048 FBD0     		beq	.L3
  81              	.LBE3:
  41:dlm.c         ****     USBUART_1_PutData(&id[0], 8);
  82              		.loc 1 41 0
  83 004a 0821     		movs	r1, #8
  84 004c 6846     		mov	r0, sp
  85 004e FFF7FEFF 		bl	USBUART_1_PutData
  86              	.LVL3:
  87              	.L4:
  88              	.LBB4:
  42:dlm.c         ****     while(USBUART_1_CDCIsReady() == 0u);
  89              		.loc 1 42 0 discriminator 1
  90 0052 FFF7FEFF 		bl	USBUART_1_CDCIsReady
  91              	.LVL4:
  92 0056 0028     		cmp	r0, #0
  93 0058 FBD0     		beq	.L4
  94              	.LBE4:
  43:dlm.c         ****     USBUART_1_PutData(&deviceAddress, 1);
  95              		.loc 1 43 0
  96 005a 0121     		movs	r1, #1
  97 005c 0448     		ldr	r0, .L6+8
  98 005e FFF7FEFF 		bl	USBUART_1_PutData
  99              	.LVL5:
  44:dlm.c         **** }
 100              		.loc 1 44 0
 101 0062 03B0     		add	sp, sp, #12
 102              		.cfi_def_cfa_offset 4
 103              		@ sp needed
 104 0064 5DF804FB 		ldr	pc, [sp], #4
 105              	.L7:
 106              		.align	2
 107              	.L6:
 108 0068 00000000 		.word	deviceID
 109 006c 00000000 		.word	.LC0
 110 0070 00000000 		.word	deviceAddress
 111              		.cfi_endproc
 112              	.LFE64:
 113              		.size	send_device_id, .-send_device_id
 114              		.section	.text.set_address,"ax",%progbits
 115              		.align	2
 116              		.global	set_address
 117              		.thumb
 118              		.thumb_func
 119              		.type	set_address, %function
 120              	set_address:
 121              	.LFB65:
  45:dlm.c         ****     
  46:dlm.c         **** void set_address() {
 122              		.loc 1 46 0
 123              		.cfi_startproc
 124              		@ args = 0, pretend = 0, frame = 0
 125              		@ frame_needed = 0, uses_anonymous_args = 0
ARM GAS  C:\Users\dr\AppData\Local\Temp\cclwAET6.s 			page 4


 126              		@ link register save eliminated.
  47:dlm.c         ****     if ( (deviceID[1] & 0xFF) == 12 ) {
 127              		.loc 1 47 0
 128 0000 094B     		ldr	r3, .L12
 129 0002 1B79     		ldrb	r3, [r3, #4]	@ zero_extendqisi2
 130 0004 0C2B     		cmp	r3, #12
 131 0006 03D1     		bne	.L9
  48:dlm.c         ****         deviceAddress = NODE_ID_1;
 132              		.loc 1 48 0
 133 0008 0122     		movs	r2, #1
 134 000a 084B     		ldr	r3, .L12+4
 135 000c 1A70     		strb	r2, [r3]
 136 000e 7047     		bx	lr
 137              	.L9:
  49:dlm.c         ****     }
  50:dlm.c         ****     else if ( (deviceID[1] & 0xFF) == 29 ) {
 138              		.loc 1 50 0
 139 0010 1D2B     		cmp	r3, #29
 140 0012 03D1     		bne	.L11
  51:dlm.c         ****         deviceAddress = NODE_ID_2;
 141              		.loc 1 51 0
 142 0014 0222     		movs	r2, #2
 143 0016 054B     		ldr	r3, .L12+4
 144 0018 1A70     		strb	r2, [r3]
 145 001a 7047     		bx	lr
 146              	.L11:
  52:dlm.c         ****     }
  53:dlm.c         ****     else if ( (deviceID[1] & 0xFF) == 13 ) {
 147              		.loc 1 53 0
 148 001c 0D2B     		cmp	r3, #13
 149 001e 02D1     		bne	.L8
  54:dlm.c         ****         deviceAddress = NODE_ID_3;
 150              		.loc 1 54 0
 151 0020 0322     		movs	r2, #3
 152 0022 024B     		ldr	r3, .L12+4
 153 0024 1A70     		strb	r2, [r3]
 154              	.L8:
 155 0026 7047     		bx	lr
 156              	.L13:
 157              		.align	2
 158              	.L12:
 159 0028 00000000 		.word	deviceID
 160 002c 00000000 		.word	deviceAddress
 161              		.cfi_endproc
 162              	.LFE65:
 163              		.size	set_address, .-set_address
 164              		.section	.text.INIT_DLM,"ax",%progbits
 165              		.align	2
 166              		.global	INIT_DLM
 167              		.thumb
 168              		.thumb_func
 169              		.type	INIT_DLM, %function
 170              	INIT_DLM:
 171              	.LFB63:
  13:dlm.c         ****     int i, j;
 172              		.loc 1 13 0
 173              		.cfi_startproc
ARM GAS  C:\Users\dr\AppData\Local\Temp\cclwAET6.s 			page 5


 174              		@ args = 0, pretend = 0, frame = 0
 175              		@ frame_needed = 0, uses_anonymous_args = 0
 176 0000 08B5     		push	{r3, lr}
 177              		.cfi_def_cfa_offset 8
 178              		.cfi_offset 3, -8
 179              		.cfi_offset 14, -4
  22:dlm.c         ****     set_address();
 180              		.loc 1 22 0
 181 0002 0348     		ldr	r0, .L16
 182 0004 FFF7FEFF 		bl	CyGetUniqueId
 183              	.LVL6:
  23:dlm.c         **** }   
 184              		.loc 1 23 0
 185 0008 FFF7FEFF 		bl	set_address
 186              	.LVL7:
 187 000c 08BD     		pop	{r3, pc}
 188              	.L17:
 189 000e 00BF     		.align	2
 190              	.L16:
 191 0010 00000000 		.word	deviceID
 192              		.cfi_endproc
 193              	.LFE63:
 194              		.size	INIT_DLM, .-INIT_DLM
 195              		.comm	routingTable,30,4
 196              		.comm	deviceAddress,1,1
 197              		.comm	deviceID,8,4
 198              		.comm	i2cWord,27,4
 199              		.comm	i2cRun,1,1
 200              		.comm	i2cData,1,1
 201              		.comm	i2cInstr,1,1
 202              		.comm	i2cAddr,1,1
 203              		.comm	i2cBuf,27,4
 204              		.comm	c,1,1
 205              		.comm	i2cSda,1,1
 206              		.comm	i2cClk,1,1
 207              		.comm	i2cStart,1,1
 208              		.comm	sum,4,4
 209              		.comm	signalMean,2,2
 210              		.comm	send15Cont,1,1
 211              		.comm	stepSize,1,1
 212              		.comm	uart_type,1,1
 213              		.comm	pre,1,1
 214              		.comm	del,1,1
 215              		.comm	buffer_uart,64,4
 216              		.comm	test16,2,2
 217              		.comm	test8,1,1
 218              		.comm	serialTest,2,4
 219              		.comm	levels_82,4,4
 220              		.comm	levels_15,4,4
 221              		.comm	levels_48,16,4
 222              		.comm	i,4,4
 223              		.comm	FLAG_SER_TX_INIT,1,1
 224              		.comm	FLAG_SER_EVENT,1,1
 225              		.comm	bufferUart,64,4
 226              		.section	.rodata.str1.4,"aMS",%progbits,1
 227              		.align	2
 228              	.LC0:
ARM GAS  C:\Users\dr\AppData\Local\Temp\cclwAET6.s 			page 6


 229 0000 49443A00 		.ascii	"ID:\000"
 230              		.text
 231              	.Letext0:
 232              		.file 2 "c:\\program files (x86)\\cypress\\psoc creator\\4.1\\psoc creator\\import\\gnu\\arm\\5.4.
 233              		.file 3 "c:\\program files (x86)\\cypress\\psoc creator\\4.1\\psoc creator\\import\\gnu\\arm\\5.4.
 234              		.file 4 "Generated_Source\\PSoC5/cytypes.h"
 235              		.file 5 "dlm.h"
 236              		.file 6 "Generated_Source\\PSoC5/core_cm3.h"
 237              		.file 7 "serial.h"
 238              		.file 8 "Generated_Source\\PSoC5/CyLib.h"