ARM GAS  C:\Users\dr\AppData\Local\Temp\ccZn7l8k.s 			page 1


   1              		.syntax unified
   2              		.cpu cortex-m3
   3              		.fpu softvfp
   4              		.eabi_attribute 20, 1
   5              		.eabi_attribute 21, 1
   6              		.eabi_attribute 23, 3
   7              		.eabi_attribute 24, 1
   8              		.eabi_attribute 25, 1
   9              		.eabi_attribute 26, 1
  10              		.eabi_attribute 30, 1
  11              		.eabi_attribute 34, 1
  12              		.eabi_attribute 18, 4
  13              		.thumb
  14              		.syntax unified
  15              		.file	"packetman.c"
  16              		.text
  17              	.Ltext0:
  18              		.cfi_sections	.debug_frame
  19              		.section	.text.INIT_PACKET_MANAGER,"ax",%progbits
  20              		.align	2
  21              		.global	INIT_PACKET_MANAGER
  22              		.thumb
  23              		.thumb_func
  24              		.type	INIT_PACKET_MANAGER, %function
  25              	INIT_PACKET_MANAGER:
  26              	.LFB63:
  27              		.file 1 "packetman.c"
   1:packetman.c   **** /* ========================================
   2:packetman.c   ****  *
   3:packetman.c   ****  * SHW - Visible light Communication Controller
   4:packetman.c   ****  * Bjarki Johannsson 2017
   5:packetman.c   ****  * Open Source
   6:packetman.c   ****  *
   7:packetman.c   ****  *
   8:packetman.c   ****  * ========================================
   9:packetman.c   **** */
  10:packetman.c   **** 
  11:packetman.c   **** #include "packetman.h"
  12:packetman.c   **** 
  13:packetman.c   **** void INIT_PACKET_MANAGER(void)
  14:packetman.c   **** {
  28              		.loc 1 14 0
  29              		.cfi_startproc
  30              		@ args = 0, pretend = 0, frame = 0
  31              		@ frame_needed = 0, uses_anonymous_args = 0
  32              		@ link register save eliminated.
  33              	.LVL0:
  15:packetman.c   **** 	int i;
  16:packetman.c   **** 	for (i=0; i<4; i++) {
  34              		.loc 1 16 0
  35 0000 0023     		movs	r3, #0
  36 0002 04E0     		b	.L2
  37              	.LVL1:
  38              	.L3:
  17:packetman.c   **** 		
  18:packetman.c   **** 		packets4[0].payload[i] = 0x33;
  39              		.loc 1 18 0 discriminator 3
ARM GAS  C:\Users\dr\AppData\Local\Temp\ccZn7l8k.s 			page 2


  40 0004 084A     		ldr	r2, .L4
  41 0006 1A44     		add	r2, r2, r3
  42 0008 3321     		movs	r1, #51
  43 000a 1172     		strb	r1, [r2, #8]
  16:packetman.c   **** 		
  44              		.loc 1 16 0 discriminator 3
  45 000c 0133     		adds	r3, r3, #1
  46              	.LVL2:
  47              	.L2:
  16:packetman.c   **** 		
  48              		.loc 1 16 0 is_stmt 0 discriminator 1
  49 000e 032B     		cmp	r3, #3
  50 0010 F8DD     		ble	.L3
  19:packetman.c   **** 	}
  20:packetman.c   **** 
  21:packetman.c   **** 	packets4[0].inUse = true;
  51              		.loc 1 21 0 is_stmt 1
  52 0012 054B     		ldr	r3, .L4
  53              	.LVL3:
  54 0014 0121     		movs	r1, #1
  55 0016 1973     		strb	r1, [r3, #12]
  22:packetman.c   **** 	packets4[0].hFields[0] = deviceAddress;
  56              		.loc 1 22 0
  57 0018 044A     		ldr	r2, .L4+4
  58 001a 1278     		ldrb	r2, [r2]	@ zero_extendqisi2
  59 001c 1A70     		strb	r2, [r3]
  23:packetman.c   **** 	packets4[0].hFields[1] = deviceAddress + 1;
  60              		.loc 1 23 0
  61 001e 0A44     		add	r2, r2, r1
  62 0020 5A70     		strb	r2, [r3, #1]
  24:packetman.c   **** 	packets4[0].hFields[3] = PACKET_SIZE_4;
  63              		.loc 1 24 0
  64 0022 D970     		strb	r1, [r3, #3]
  65 0024 7047     		bx	lr
  66              	.L5:
  67 0026 00BF     		.align	2
  68              	.L4:
  69 0028 00000000 		.word	packets4
  70 002c 00000000 		.word	deviceAddress
  71              		.cfi_endproc
  72              	.LFE63:
  73              		.size	INIT_PACKET_MANAGER, .-INIT_PACKET_MANAGER
  74              		.section	.text.setDMA,"ax",%progbits
  75              		.align	2
  76              		.global	setDMA
  77              		.thumb
  78              		.thumb_func
  79              		.type	setDMA, %function
  80              	setDMA:
  81              	.LFB64:
  25:packetman.c   **** 	
  26:packetman.c   **** }
  27:packetman.c   **** 
  28:packetman.c   **** void setDMA(uint8* packet, uint16 length)
  29:packetman.c   **** {
  82              		.loc 1 29 0
  83              		.cfi_startproc
ARM GAS  C:\Users\dr\AppData\Local\Temp\ccZn7l8k.s 			page 3


  84              		@ args = 0, pretend = 0, frame = 0
  85              		@ frame_needed = 0, uses_anonymous_args = 0
  86              	.LVL4:
  87 0000 F8B5     		push	{r3, r4, r5, r6, r7, lr}
  88              		.cfi_def_cfa_offset 24
  89              		.cfi_offset 3, -24
  90              		.cfi_offset 4, -20
  91              		.cfi_offset 5, -16
  92              		.cfi_offset 6, -12
  93              		.cfi_offset 7, -8
  94              		.cfi_offset 14, -4
  95 0002 0646     		mov	r6, r0
  96 0004 0F46     		mov	r7, r1
  30:packetman.c   **** 	/* DMA Configuration for DMA_PAY */
  31:packetman.c   **** 	DMA_PAY_Chan = DMA_PAY_DmaInitialize(DMA_PAY_BYTES_PER_BURST, DMA_PAY_REQUEST_PER_BURST, 
  97              		.loc 1 31 0
  98 0006 4FF48043 		mov	r3, #16384
  99 000a 41F6FF72 		movw	r2, #8191
 100 000e 0121     		movs	r1, #1
 101              	.LVL5:
 102 0010 0846     		mov	r0, r1
 103              	.LVL6:
 104 0012 FFF7FEFF 		bl	DMA_PAY_DmaInitialize
 105              	.LVL7:
 106 0016 0D4C     		ldr	r4, .L8
 107 0018 2070     		strb	r0, [r4]
  32:packetman.c   **** 	    HI16(DMA_PAY_SRC_BASE), HI16(DMA_PAY_DST_BASE));
  33:packetman.c   **** 	DMA_PAY_TD[0] = CyDmaTdAllocate();
 108              		.loc 1 33 0
 109 001a FFF7FEFF 		bl	CyDmaTdAllocate
 110              	.LVL8:
 111 001e 0246     		mov	r2, r0
 112 0020 0B4D     		ldr	r5, .L8+4
 113 0022 2870     		strb	r0, [r5]
  34:packetman.c   **** 	CyDmaTdSetConfiguration(DMA_PAY_TD[0], length, DMA_PAY_TD[0], CY_DMA_TD_INC_SRC_ADR);
 114              		.loc 1 34 0
 115 0024 0123     		movs	r3, #1
 116 0026 3946     		mov	r1, r7
 117 0028 FFF7FEFF 		bl	CyDmaTdSetConfiguration
 118              	.LVL9:
  35:packetman.c   **** 	CyDmaTdSetAddress(DMA_PAY_TD[0], LO16((uint32)packet), LO16((uint32)CREG_PAY_Control_PTR));
 119              		.loc 1 35 0
 120 002c 46F27442 		movw	r2, #25716
 121 0030 B1B2     		uxth	r1, r6
 122 0032 2878     		ldrb	r0, [r5]	@ zero_extendqisi2
 123 0034 FFF7FEFF 		bl	CyDmaTdSetAddress
 124              	.LVL10:
  36:packetman.c   **** 	CyDmaChSetInitialTd(DMA_PAY_Chan, DMA_PAY_TD[0]);
 125              		.loc 1 36 0
 126 0038 2978     		ldrb	r1, [r5]	@ zero_extendqisi2
 127 003a 2078     		ldrb	r0, [r4]	@ zero_extendqisi2
 128 003c FFF7FEFF 		bl	CyDmaChSetInitialTd
 129              	.LVL11:
  37:packetman.c   **** 	CyDmaChEnable(DMA_PAY_Chan, 1);
 130              		.loc 1 37 0
 131 0040 0121     		movs	r1, #1
 132 0042 2078     		ldrb	r0, [r4]	@ zero_extendqisi2
ARM GAS  C:\Users\dr\AppData\Local\Temp\ccZn7l8k.s 			page 4


 133 0044 FFF7FEFF 		bl	CyDmaChEnable
 134              	.LVL12:
 135 0048 F8BD     		pop	{r3, r4, r5, r6, r7, pc}
 136              	.LVL13:
 137              	.L9:
 138 004a 00BF     		.align	2
 139              	.L8:
 140 004c 00000000 		.word	DMA_PAY_Chan
 141 0050 00000000 		.word	DMA_PAY_TD
 142              		.cfi_endproc
 143              	.LFE64:
 144              		.size	setDMA, .-setDMA
 145              		.section	.text.makeHeader,"ax",%progbits
 146              		.align	2
 147              		.global	makeHeader
 148              		.thumb
 149              		.thumb_func
 150              		.type	makeHeader, %function
 151              	makeHeader:
 152              	.LFB65:
  38:packetman.c   **** 	
  39:packetman.c   **** }
  40:packetman.c   **** 
  41:packetman.c   **** void makeHeader(uint8 p)
  42:packetman.c   **** {
 153              		.loc 1 42 0
 154              		.cfi_startproc
 155              		@ args = 0, pretend = 0, frame = 8
 156              		@ frame_needed = 0, uses_anonymous_args = 0
 157              		@ link register save eliminated.
 158              	.LVL14:
 159 0000 30B4     		push	{r4, r5}
 160              		.cfi_def_cfa_offset 8
 161              		.cfi_offset 4, -8
 162              		.cfi_offset 5, -4
 163 0002 82B0     		sub	sp, sp, #8
 164              		.cfi_def_cfa_offset 16
  43:packetman.c   **** 	
  44:packetman.c   **** 	uint8 bit, fSum[4], f;
  45:packetman.c   **** 	packets4[p].hFields[2] = modLevel;
 165              		.loc 1 45 0
 166 0004 00EB4003 		add	r3, r0, r0, lsl #1
 167 0008 00EB8303 		add	r3, r0, r3, lsl #2
 168 000c 374A     		ldr	r2, .L25
 169 000e 1344     		add	r3, r3, r2
 170 0010 374A     		ldr	r2, .L25+4
 171 0012 1278     		ldrb	r2, [r2]	@ zero_extendqisi2
 172 0014 9A70     		strb	r2, [r3, #2]
 173              	.LVL15:
  46:packetman.c   **** 	
  47:packetman.c   **** 	for (f=0; f<4; f++) {
 174              		.loc 1 47 0
 175 0016 0024     		movs	r4, #0
 176 0018 18E0     		b	.L11
 177              	.LVL16:
 178              	.L12:
  48:packetman.c   **** 		
ARM GAS  C:\Users\dr\AppData\Local\Temp\ccZn7l8k.s 			page 5


  49:packetman.c   **** 		for (bit=0; bit<4; bit++) {
  50:packetman.c   **** 		
  51:packetman.c   **** 			fSum[f] += (packets4[p].hFields[f] & 1<<bit);
 179              		.loc 1 51 0 discriminator 3
 180 001a 00EB4003 		add	r3, r0, r0, lsl #1
 181 001e 00EB8303 		add	r3, r0, r3, lsl #2
 182 0022 3249     		ldr	r1, .L25
 183 0024 0B44     		add	r3, r3, r1
 184 0026 195D     		ldrb	r1, [r3, r4]	@ zero_extendqisi2
 185 0028 0123     		movs	r3, #1
 186 002a 9340     		lsls	r3, r3, r2
 187 002c 0B40     		ands	r3, r3, r1
 188 002e 02A9     		add	r1, sp, #8
 189 0030 2144     		add	r1, r1, r4
 190 0032 11F8045C 		ldrb	r5, [r1, #-4]	@ zero_extendqisi2
 191 0036 2B44     		add	r3, r3, r5
 192 0038 01F8043C 		strb	r3, [r1, #-4]
  49:packetman.c   **** 		
 193              		.loc 1 49 0 discriminator 3
 194 003c 0132     		adds	r2, r2, #1
 195              	.LVL17:
 196 003e D2B2     		uxtb	r2, r2
 197              	.LVL18:
 198 0040 00E0     		b	.L13
 199              	.LVL19:
 200              	.L23:
 201 0042 0022     		movs	r2, #0
 202              	.L13:
 203              	.LVL20:
  49:packetman.c   **** 		
 204              		.loc 1 49 0 is_stmt 0 discriminator 1
 205 0044 032A     		cmp	r2, #3
 206 0046 E8D9     		bls	.L12
  47:packetman.c   **** 		
 207              		.loc 1 47 0 is_stmt 1 discriminator 2
 208 0048 0134     		adds	r4, r4, #1
 209              	.LVL21:
 210 004a E4B2     		uxtb	r4, r4
 211              	.LVL22:
 212              	.L11:
  47:packetman.c   **** 		
 213              		.loc 1 47 0 is_stmt 0 discriminator 1
 214 004c 032C     		cmp	r4, #3
 215 004e F8D9     		bls	.L23
 216 0050 0023     		movs	r3, #0
 217 0052 45E0     		b	.L14
 218              	.LVL23:
 219              	.L22:
  52:packetman.c   **** 		}
  53:packetman.c   **** 	}
  54:packetman.c   **** 	
  55:packetman.c   **** 	for (f=0; f<4; f++) {
  56:packetman.c   **** 		
  57:packetman.c   **** 		switch(fSum[f]) {
 220              		.loc 1 57 0 is_stmt 1
 221 0054 02AA     		add	r2, sp, #8
 222 0056 1A44     		add	r2, r2, r3
ARM GAS  C:\Users\dr\AppData\Local\Temp\ccZn7l8k.s 			page 6


 223 0058 12F8042C 		ldrb	r2, [r2, #-4]	@ zero_extendqisi2
 224 005c 042A     		cmp	r2, #4
 225 005e 3DD8     		bhi	.L15
 226 0060 DFE802F0 		tbb	[pc, r2]
 227              	.L17:
 228 0064 03       		.byte	(.L16-.L17)/2
 229 0065 0F       		.byte	(.L18-.L17)/2
 230 0066 1B       		.byte	(.L19-.L17)/2
 231 0067 27       		.byte	(.L20-.L17)/2
 232 0068 33       		.byte	(.L21-.L17)/2
 233 0069 00       		.p2align 1
 234              	.L16:
  58:packetman.c   **** 			
  59:packetman.c   **** 			case 0:
  60:packetman.c   **** 				packets4[p].header[f] = (0xF0 & packets4[p].hFields[f]);
 235              		.loc 1 60 0
 236 006a 00EB4002 		add	r2, r0, r0, lsl #1
 237 006e 00EB8202 		add	r2, r0, r2, lsl #2
 238 0072 1E49     		ldr	r1, .L25
 239 0074 0A44     		add	r2, r2, r1
 240 0076 D118     		adds	r1, r2, r3
 241 0078 D25C     		ldrb	r2, [r2, r3]	@ zero_extendqisi2
 242 007a 22F00F02 		bic	r2, r2, #15
 243 007e 0A71     		strb	r2, [r1, #4]
  61:packetman.c   **** 				break;
 244              		.loc 1 61 0
 245 0080 2CE0     		b	.L15
 246              	.L18:
  62:packetman.c   **** 			case 1:
  63:packetman.c   **** 				packets4[p].header[f] = (0xE0 & packets4[p].hFields[f]);
 247              		.loc 1 63 0
 248 0082 00EB4002 		add	r2, r0, r0, lsl #1
 249 0086 00EB8202 		add	r2, r0, r2, lsl #2
 250 008a 1849     		ldr	r1, .L25
 251 008c 0A44     		add	r2, r2, r1
 252 008e D118     		adds	r1, r2, r3
 253 0090 D25C     		ldrb	r2, [r2, r3]	@ zero_extendqisi2
 254 0092 22F01F02 		bic	r2, r2, #31
 255 0096 0A71     		strb	r2, [r1, #4]
  64:packetman.c   **** 				break;
 256              		.loc 1 64 0
 257 0098 20E0     		b	.L15
 258              	.L19:
  65:packetman.c   **** 			case 2:
  66:packetman.c   **** 				packets4[p].header[f] = (0xC0 & packets4[p].hFields[f]);
 259              		.loc 1 66 0
 260 009a 00EB4002 		add	r2, r0, r0, lsl #1
 261 009e 00EB8202 		add	r2, r0, r2, lsl #2
 262 00a2 1249     		ldr	r1, .L25
 263 00a4 0A44     		add	r2, r2, r1
 264 00a6 D118     		adds	r1, r2, r3
 265 00a8 D25C     		ldrb	r2, [r2, r3]	@ zero_extendqisi2
 266 00aa 22F03F02 		bic	r2, r2, #63
 267 00ae 0A71     		strb	r2, [r1, #4]
  67:packetman.c   **** 				break;
 268              		.loc 1 67 0
 269 00b0 14E0     		b	.L15
ARM GAS  C:\Users\dr\AppData\Local\Temp\ccZn7l8k.s 			page 7


 270              	.L20:
  68:packetman.c   **** 			case 3:
  69:packetman.c   **** 				packets4[p].header[f] = (0x80 & packets4[p].hFields[f]);
 271              		.loc 1 69 0
 272 00b2 00EB4002 		add	r2, r0, r0, lsl #1
 273 00b6 00EB8202 		add	r2, r0, r2, lsl #2
 274 00ba 0C49     		ldr	r1, .L25
 275 00bc 0A44     		add	r2, r2, r1
 276 00be D118     		adds	r1, r2, r3
 277 00c0 D25C     		ldrb	r2, [r2, r3]	@ zero_extendqisi2
 278 00c2 22F07F02 		bic	r2, r2, #127
 279 00c6 0A71     		strb	r2, [r1, #4]
  70:packetman.c   **** 				break;
 280              		.loc 1 70 0
 281 00c8 08E0     		b	.L15
 282              	.L21:
  71:packetman.c   **** 			case 4:
  72:packetman.c   **** 				packets4[p].header[f] = (0x00 & packets4[p].hFields[f]);
 283              		.loc 1 72 0
 284 00ca 00EB4002 		add	r2, r0, r0, lsl #1
 285 00ce 00EB8202 		add	r2, r0, r2, lsl #2
 286 00d2 0649     		ldr	r1, .L25
 287 00d4 0A44     		add	r2, r2, r1
 288 00d6 1A44     		add	r2, r2, r3
 289 00d8 0021     		movs	r1, #0
 290 00da 1171     		strb	r1, [r2, #4]
 291              	.L15:
  55:packetman.c   **** 		
 292              		.loc 1 55 0 discriminator 2
 293 00dc 0133     		adds	r3, r3, #1
 294              	.LVL24:
 295 00de DBB2     		uxtb	r3, r3
 296              	.LVL25:
 297              	.L14:
  55:packetman.c   **** 		
 298              		.loc 1 55 0 is_stmt 0 discriminator 1
 299 00e0 032B     		cmp	r3, #3
 300 00e2 B7D9     		bls	.L22
  73:packetman.c   **** 				break;
  74:packetman.c   **** 			default:
  75:packetman.c   **** 				break;
  76:packetman.c   **** 		}
  77:packetman.c   **** 	}
  78:packetman.c   **** 	
  79:packetman.c   **** }
 301              		.loc 1 79 0 is_stmt 1
 302 00e4 02B0     		add	sp, sp, #8
 303              		.cfi_def_cfa_offset 8
 304              		@ sp needed
 305 00e6 30BC     		pop	{r4, r5}
 306              		.cfi_restore 5
 307              		.cfi_restore 4
 308              		.cfi_def_cfa_offset 0
 309 00e8 7047     		bx	lr
 310              	.L26:
 311 00ea 00BF     		.align	2
 312              	.L25:
ARM GAS  C:\Users\dr\AppData\Local\Temp\ccZn7l8k.s 			page 8


 313 00ec 00000000 		.word	packets4
 314 00f0 00000000 		.word	modLevel
 315              		.cfi_endproc
 316              	.LFE65:
 317              		.size	makeHeader, .-makeHeader
 318              		.comm	packets4,65,4
 319              		.comm	DMA_PAY_TD,1,4
 320              		.comm	DMA_PAY_Chan,1,1
 321              		.comm	dimLevel,1,1
 322              		.comm	symCnt,1,1
 323              		.comm	symTx,31,4
 324              		.comm	lMask,1,1
 325              		.comm	symbolNext,1,1
 326              		.comm	trackSum,2,2
 327              		.comm	m32Track,32,4
 328              		.comm	m16Track,16,4
 329              		.comm	m8Track,8,4
 330              		.comm	m4Track,4,4
 331              		.comm	m2Track,2,4
 332              		.comm	m32,32,4
 333              		.comm	m16,16,4
 334              		.comm	m8,8,4
 335              		.comm	m4,4,4
 336              		.comm	m2,2,4
 337              		.comm	modLevel,1,1
 338              		.comm	FLAG_TX_DONE,1,1
 339              		.comm	FLAG_TX_EVENT,1,1
 340              		.comm	DMA_HAM2SER_TD,1,4
 341              		.comm	DMA_HAM2SER_Chan,1,1
 342              		.comm	sh_fifo,1,1
 343              		.comm	sh_load,1,1
 344              		.comm	sh_test,1,1
 345              		.global	colValH
 346              		.global	H
 347              		.comm	hamWordCheck,16,4
 348              		.comm	headCnt,1,1
 349              		.comm	rxDst,1,1
 350              		.comm	rxSrc,1,1
 351              		.comm	rxTrackSum,2,2
 352              		.comm	rxLength,2,2
 353              		.comm	rxModLevel,1,1
 354              		.comm	adcValue,2,2
 355              		.comm	routingTable,30,4
 356              		.comm	deviceAddress,1,1
 357              		.comm	deviceID,8,4
 358              		.comm	i2cWord,27,4
 359              		.comm	i2cRun,1,1
 360              		.comm	i2cData,1,1
 361              		.comm	i2cInstr,1,1
 362              		.comm	i2cAddr,1,1
 363              		.comm	i2cBuf,27,4
 364              		.comm	c,1,1
 365              		.comm	i2cSda,1,1
 366              		.comm	i2cClk,1,1
 367              		.comm	i2cStart,1,1
 368              		.comm	sum,4,4
 369              		.comm	signalMean,2,2
ARM GAS  C:\Users\dr\AppData\Local\Temp\ccZn7l8k.s 			page 9


 370              		.comm	send15Cont,1,1
 371              		.comm	stepSize,1,1
 372              		.comm	uart_type,1,1
 373              		.comm	pre,1,1
 374              		.comm	del,1,1
 375              		.comm	buffer_uart,64,4
 376              		.comm	test16,2,2
 377              		.comm	test8,1,1
 378              		.comm	serialTest,2,4
 379              		.comm	levels_82,4,4
 380              		.comm	levels_15,4,4
 381              		.comm	levels_48,16,4
 382              		.comm	i,4,4
 383              		.comm	FLAG_SER_TX_INIT,1,1
 384              		.comm	FLAG_SER_EVENT,1,1
 385              		.comm	bufferUart,64,4
 386              		.data
 387              		.align	2
 388              		.type	colValH, %object
 389              		.size	colValH, 7
 390              	colValH:
 391 0000 07       		.byte	7
 392 0001 06       		.byte	6
 393 0002 05       		.byte	5
 394 0003 03       		.byte	3
 395 0004 04       		.byte	4
 396 0005 02       		.byte	2
 397 0006 01       		.byte	1
 398 0007 00       		.space	1
 399              		.type	H, %object
 400              		.size	H, 21
 401              	H:
 402 0008 01       		.byte	1
 403 0009 01       		.byte	1
 404 000a 01       		.byte	1
 405 000b 00       		.byte	0
 406 000c 01       		.byte	1
 407 000d 00       		.byte	0
 408 000e 00       		.byte	0
 409 000f 01       		.byte	1
 410 0010 01       		.byte	1
 411 0011 00       		.byte	0
 412 0012 01       		.byte	1
 413 0013 00       		.byte	0
 414 0014 01       		.byte	1
 415 0015 00       		.byte	0
 416 0016 01       		.byte	1
 417 0017 00       		.byte	0
 418 0018 01       		.byte	1
 419 0019 01       		.byte	1
 420 001a 00       		.byte	0
 421 001b 00       		.byte	0
 422 001c 01       		.byte	1
 423              		.text
 424              	.Letext0:
 425              		.file 2 "c:\\program files (x86)\\cypress\\psoc creator\\4.1\\psoc creator\\import\\gnu\\arm\\5.4.
 426              		.file 3 "c:\\program files (x86)\\cypress\\psoc creator\\4.1\\psoc creator\\import\\gnu\\arm\\5.4.
ARM GAS  C:\Users\dr\AppData\Local\Temp\ccZn7l8k.s 			page 10


 427              		.file 4 "Generated_Source\\PSoC5/cytypes.h"
 428              		.file 5 "dlm.h"
 429              		.file 6 "packetman.h"
 430              		.file 7 "Generated_Source\\PSoC5/core_cm3.h"
 431              		.file 8 "serial.h"
 432              		.file 9 "main.h"
 433              		.file 10 "rxsubsystem.h"
 434              		.file 11 "txsubsystem.h"
 435              		.file 12 "dimmingcontrol.h"
 436              		.file 13 "Generated_Source\\PSoC5/DMA_PAY_dma.h"
 437              		.file 14 "Generated_Source\\PSoC5/CYDMAC.H"