ARM GAS  C:\Users\dr\AppData\Local\Temp\ccxTIbEU.s 			page 1


   1              		.syntax unified
   2              		.cpu cortex-m3
   3              		.fpu softvfp
   4              		.eabi_attribute 20, 1
   5              		.eabi_attribute 21, 1
   6              		.eabi_attribute 23, 3
   7              		.eabi_attribute 24, 1
   8              		.eabi_attribute 25, 1
   9              		.eabi_attribute 26, 1
  10              		.eabi_attribute 30, 1
  11              		.eabi_attribute 34, 1
  12              		.eabi_attribute 18, 4
  13              		.thumb
  14              		.syntax unified
  15              		.file	"rxsubsystem.c"
  16              		.text
  17              	.Ltext0:
  18              		.cfi_sections	.debug_frame
  19              		.section	.text.INIT_RX_SUBSYSTEM,"ax",%progbits
  20              		.align	2
  21              		.global	INIT_RX_SUBSYSTEM
  22              		.thumb
  23              		.thumb_func
  24              		.type	INIT_RX_SUBSYSTEM, %function
  25              	INIT_RX_SUBSYSTEM:
  26              	.LFB63:
  27              		.file 1 "rxsubsystem.c"
   1:rxsubsystem.c **** /* ========================================
   2:rxsubsystem.c ****  *
   3:rxsubsystem.c ****  * SHW - Visible light Communication Controller
   4:rxsubsystem.c ****  * Bjarki Johannsson 2017
   5:rxsubsystem.c ****  * Open Source
   6:rxsubsystem.c ****  *
   7:rxsubsystem.c ****  *
   8:rxsubsystem.c ****  * ========================================
   9:rxsubsystem.c **** */
  10:rxsubsystem.c **** 
  11:rxsubsystem.c **** #include "rxsubsystem.h"
  12:rxsubsystem.c **** 
  13:rxsubsystem.c **** void INIT_RX_SUBSYSTEM(void)
  14:rxsubsystem.c **** {
  28              		.loc 1 14 0
  29              		.cfi_startproc
  30              		@ args = 0, pretend = 0, frame = 0
  31              		@ frame_needed = 0, uses_anonymous_args = 0
  32              		@ link register save eliminated.
  15:rxsubsystem.c **** 
  16:rxsubsystem.c **** 	hamWordCheck[0] = 0x00;
  33              		.loc 1 16 0
  34 0000 104B     		ldr	r3, .L2
  35 0002 0022     		movs	r2, #0
  36 0004 1A70     		strb	r2, [r3]
  17:rxsubsystem.c **** 	hamWordCheck[1] = 0x47;
  37              		.loc 1 17 0
  38 0006 4722     		movs	r2, #71
  39 0008 5A70     		strb	r2, [r3, #1]
  18:rxsubsystem.c **** 	hamWordCheck[2] = 0x26;
ARM GAS  C:\Users\dr\AppData\Local\Temp\ccxTIbEU.s 			page 2


  40              		.loc 1 18 0
  41 000a 2622     		movs	r2, #38
  42 000c 9A70     		strb	r2, [r3, #2]
  19:rxsubsystem.c **** 	hamWordCheck[3] = 0x61;
  43              		.loc 1 19 0
  44 000e 6122     		movs	r2, #97
  45 0010 DA70     		strb	r2, [r3, #3]
  20:rxsubsystem.c **** 	hamWordCheck[4] = 0x15;
  46              		.loc 1 20 0
  47 0012 1522     		movs	r2, #21
  48 0014 1A71     		strb	r2, [r3, #4]
  21:rxsubsystem.c **** 	hamWordCheck[5] = 0x52;
  49              		.loc 1 21 0
  50 0016 5222     		movs	r2, #82
  51 0018 5A71     		strb	r2, [r3, #5]
  22:rxsubsystem.c **** 	hamWordCheck[6] = 0x33;
  52              		.loc 1 22 0
  53 001a 3322     		movs	r2, #51
  54 001c 9A71     		strb	r2, [r3, #6]
  23:rxsubsystem.c **** 	hamWordCheck[7] = 0x74;
  55              		.loc 1 23 0
  56 001e 7422     		movs	r2, #116
  57 0020 DA71     		strb	r2, [r3, #7]
  24:rxsubsystem.c **** 	hamWordCheck[8] = 0x11;
  58              		.loc 1 24 0
  59 0022 1122     		movs	r2, #17
  60 0024 1A72     		strb	r2, [r3, #8]
  25:rxsubsystem.c **** 	hamWordCheck[9] = 0x4C;
  61              		.loc 1 25 0
  62 0026 4C22     		movs	r2, #76
  63 0028 5A72     		strb	r2, [r3, #9]
  26:rxsubsystem.c **** 	hamWordCheck[10] = 0x2D;
  64              		.loc 1 26 0
  65 002a 2D22     		movs	r2, #45
  66 002c 9A72     		strb	r2, [r3, #10]
  27:rxsubsystem.c **** 	hamWordCheck[11] = 0x6A;
  67              		.loc 1 27 0
  68 002e 6A22     		movs	r2, #106
  69 0030 DA72     		strb	r2, [r3, #11]
  28:rxsubsystem.c **** 	hamWordCheck[12] = 0x1E;
  70              		.loc 1 28 0
  71 0032 1E22     		movs	r2, #30
  72 0034 1A73     		strb	r2, [r3, #12]
  29:rxsubsystem.c **** 	hamWordCheck[13] = 0x59;
  73              		.loc 1 29 0
  74 0036 5922     		movs	r2, #89
  75 0038 5A73     		strb	r2, [r3, #13]
  30:rxsubsystem.c **** 	hamWordCheck[14] = 0x38;
  76              		.loc 1 30 0
  77 003a 3822     		movs	r2, #56
  78 003c 9A73     		strb	r2, [r3, #14]
  31:rxsubsystem.c **** 	hamWordCheck[15] = 0x3F;
  79              		.loc 1 31 0
  80 003e 3F22     		movs	r2, #63
  81 0040 DA73     		strb	r2, [r3, #15]
  82 0042 7047     		bx	lr
  83              	.L3:
ARM GAS  C:\Users\dr\AppData\Local\Temp\ccxTIbEU.s 			page 3


  84              		.align	2
  85              	.L2:
  86 0044 00000000 		.word	hamWordCheck
  87              		.cfi_endproc
  88              	.LFE63:
  89              		.size	INIT_RX_SUBSYSTEM, .-INIT_RX_SUBSYSTEM
  90              		.section	.text.decodeHamming,"ax",%progbits
  91              		.align	2
  92              		.global	decodeHamming
  93              		.thumb
  94              		.thumb_func
  95              		.type	decodeHamming, %function
  96              	decodeHamming:
  97              	.LFB64:
  32:rxsubsystem.c **** }
  33:rxsubsystem.c **** 
  34:rxsubsystem.c **** uint8 decodeHamming(uint8 hamWord)
  35:rxsubsystem.c **** {
  98              		.loc 1 35 0
  99              		.cfi_startproc
 100              		@ args = 0, pretend = 0, frame = 8
 101              		@ frame_needed = 0, uses_anonymous_args = 0
 102              		@ link register save eliminated.
 103              	.LVL0:
  36:rxsubsystem.c **** 	uint8 row, col, s[3];
  37:rxsubsystem.c **** 	uint8 word;
  38:rxsubsystem.c **** 	
  39:rxsubsystem.c **** 	/* If there's no error, find the matching Hamming word */
  40:rxsubsystem.c **** 	for (word=0; word<16; word++) {
 104              		.loc 1 40 0
 105 0000 0023     		movs	r3, #0
 106 0002 08E0     		b	.L5
 107              	.LVL1:
 108              	.L8:
  41:rxsubsystem.c **** 		
  42:rxsubsystem.c **** 		if (hamWord == hamWordCheck[word]) {
 109              		.loc 1 42 0
 110 0004 284A     		ldr	r2, .L19
 111 0006 D25C     		ldrb	r2, [r2, r3]	@ zero_extendqisi2
 112 0008 8242     		cmp	r2, r0
 113 000a 02D1     		bne	.L6
  43:rxsubsystem.c **** 			
  44:rxsubsystem.c **** 			return i;
 114              		.loc 1 44 0
 115 000c 274B     		ldr	r3, .L19+4
 116              	.LVL2:
 117 000e 1878     		ldrb	r0, [r3]	@ zero_extendqisi2
 118              	.LVL3:
  45:rxsubsystem.c **** 		}
  46:rxsubsystem.c **** 	}
  47:rxsubsystem.c **** 	
  48:rxsubsystem.c **** 	/* If error, do syndrome decoding */
  49:rxsubsystem.c **** 	for (row=0; row<3; row++) {
  50:rxsubsystem.c **** 		
  51:rxsubsystem.c **** 		for (col=0; col<7; col++) {
  52:rxsubsystem.c **** 		
  53:rxsubsystem.c **** 			s[row] ^= (hamWord & 1<<(7-col))&H[row][col];
ARM GAS  C:\Users\dr\AppData\Local\Temp\ccxTIbEU.s 			page 4


  54:rxsubsystem.c **** 		}
  55:rxsubsystem.c **** 	}
  56:rxsubsystem.c **** 	
  57:rxsubsystem.c **** 	uint8 syndrome;
  58:rxsubsystem.c **** 	for (row = 0; row<3; row++) {
  59:rxsubsystem.c **** 		
  60:rxsubsystem.c **** 		syndrome = (syndrome | (s[row]&0x01) << (2-row));
  61:rxsubsystem.c **** 	}
  62:rxsubsystem.c **** 		
  63:rxsubsystem.c **** 	for (col = 0; col<7; col++) {
  64:rxsubsystem.c **** 		
  65:rxsubsystem.c **** 		if (syndrome == colValH[col]) {
  66:rxsubsystem.c **** 			
  67:rxsubsystem.c **** 			return (hamWord ^= (1<<col));
  68:rxsubsystem.c **** 		}
  69:rxsubsystem.c **** 	}
  70:rxsubsystem.c **** 	
  71:rxsubsystem.c **** 	return 1;
  72:rxsubsystem.c **** }
 119              		.loc 1 72 0
 120 0010 7047     		bx	lr
 121              	.LVL4:
 122              	.L6:
  40:rxsubsystem.c **** 		
 123              		.loc 1 40 0 discriminator 2
 124 0012 0133     		adds	r3, r3, #1
 125              	.LVL5:
 126 0014 DBB2     		uxtb	r3, r3
 127              	.LVL6:
 128              	.L5:
  40:rxsubsystem.c **** 		
 129              		.loc 1 40 0 is_stmt 0 discriminator 1
 130 0016 0F2B     		cmp	r3, #15
 131 0018 F4D9     		bls	.L8
  35:rxsubsystem.c **** 	uint8 row, col, s[3];
 132              		.loc 1 35 0 is_stmt 1
 133 001a 70B4     		push	{r4, r5, r6}
 134              		.cfi_def_cfa_offset 12
 135              		.cfi_offset 4, -12
 136              		.cfi_offset 5, -8
 137              		.cfi_offset 6, -4
 138 001c 83B0     		sub	sp, sp, #12
 139              		.cfi_def_cfa_offset 24
 140 001e 0026     		movs	r6, #0
 141 0020 19E0     		b	.L9
 142              	.LVL7:
 143              	.L10:
  53:rxsubsystem.c **** 		}
 144              		.loc 1 53 0 discriminator 3
 145 0022 C3F10701 		rsb	r1, r3, #7
 146 0026 0122     		movs	r2, #1
 147 0028 8A40     		lsls	r2, r2, r1
 148 002a C6EBC601 		rsb	r1, r6, r6, lsl #3
 149 002e 204C     		ldr	r4, .L19+8
 150 0030 2144     		add	r1, r1, r4
 151 0032 C95C     		ldrb	r1, [r1, r3]	@ zero_extendqisi2
 152 0034 0240     		ands	r2, r2, r0
ARM GAS  C:\Users\dr\AppData\Local\Temp\ccxTIbEU.s 			page 5


 153 0036 0A40     		ands	r2, r2, r1
 154 0038 02A9     		add	r1, sp, #8
 155 003a 3144     		add	r1, r1, r6
 156 003c 11F8044C 		ldrb	r4, [r1, #-4]	@ zero_extendqisi2
 157 0040 6240     		eors	r2, r2, r4
 158 0042 01F8042C 		strb	r2, [r1, #-4]
  51:rxsubsystem.c **** 		
 159              		.loc 1 51 0 discriminator 3
 160 0046 0133     		adds	r3, r3, #1
 161              	.LVL8:
 162 0048 DBB2     		uxtb	r3, r3
 163              	.LVL9:
 164 004a 00E0     		b	.L11
 165              	.LVL10:
 166              	.L17:
 167 004c 0023     		movs	r3, #0
 168              	.L11:
 169              	.LVL11:
  51:rxsubsystem.c **** 		
 170              		.loc 1 51 0 is_stmt 0 discriminator 1
 171 004e 062B     		cmp	r3, #6
 172 0050 E7D9     		bls	.L10
  49:rxsubsystem.c **** 		
 173              		.loc 1 49 0 is_stmt 1 discriminator 2
 174 0052 0136     		adds	r6, r6, #1
 175              	.LVL12:
 176 0054 F6B2     		uxtb	r6, r6
 177              	.LVL13:
 178              	.L9:
  49:rxsubsystem.c **** 		
 179              		.loc 1 49 0 is_stmt 0 discriminator 1
 180 0056 022E     		cmp	r6, #2
 181 0058 F8D9     		bls	.L17
 182 005a 0022     		movs	r2, #0
 183 005c 0CE0     		b	.L12
 184              	.LVL14:
 185              	.L13:
  60:rxsubsystem.c **** 	}
 186              		.loc 1 60 0 is_stmt 1 discriminator 3
 187 005e 02AB     		add	r3, sp, #8
 188 0060 1344     		add	r3, r3, r2
 189 0062 13F8043C 		ldrb	r3, [r3, #-4]	@ zero_extendqisi2
 190 0066 03F00103 		and	r3, r3, #1
 191 006a C2F10201 		rsb	r1, r2, #2
 192 006e 8B40     		lsls	r3, r3, r1
 193 0070 1D43     		orrs	r5, r5, r3
 194              	.LVL15:
 195 0072 EDB2     		uxtb	r5, r5
 196              	.LVL16:
  58:rxsubsystem.c **** 		
 197              		.loc 1 58 0 discriminator 3
 198 0074 0132     		adds	r2, r2, #1
 199              	.LVL17:
 200 0076 D2B2     		uxtb	r2, r2
 201              	.LVL18:
 202              	.L12:
  58:rxsubsystem.c **** 		
ARM GAS  C:\Users\dr\AppData\Local\Temp\ccxTIbEU.s 			page 6


 203              		.loc 1 58 0 is_stmt 0 discriminator 1
 204 0078 022A     		cmp	r2, #2
 205 007a F0D9     		bls	.L13
 206 007c 0023     		movs	r3, #0
 207 007e 0DE0     		b	.L14
 208              	.LVL19:
 209              	.L16:
  65:rxsubsystem.c **** 			
 210              		.loc 1 65 0 is_stmt 1
 211 0080 1946     		mov	r1, r3
 212 0082 0B4A     		ldr	r2, .L19+8
 213 0084 1A44     		add	r2, r2, r3
 214 0086 127E     		ldrb	r2, [r2, #24]	@ zero_extendqisi2
 215 0088 9542     		cmp	r5, r2
 216 008a 05D1     		bne	.L15
  67:rxsubsystem.c **** 		}
 217              		.loc 1 67 0
 218 008c 0123     		movs	r3, #1
 219              	.LVL20:
 220 008e 03FA01F1 		lsl	r1, r3, r1
 221 0092 4840     		eors	r0, r0, r1
 222              	.LVL21:
 223 0094 C0B2     		uxtb	r0, r0
 224              	.LVL22:
 225 0096 04E0     		b	.L7
 226              	.LVL23:
 227              	.L15:
  63:rxsubsystem.c **** 		
 228              		.loc 1 63 0 discriminator 2
 229 0098 0133     		adds	r3, r3, #1
 230              	.LVL24:
 231 009a DBB2     		uxtb	r3, r3
 232              	.LVL25:
 233              	.L14:
  63:rxsubsystem.c **** 		
 234              		.loc 1 63 0 is_stmt 0 discriminator 1
 235 009c 062B     		cmp	r3, #6
 236 009e EFD9     		bls	.L16
  71:rxsubsystem.c **** }
 237              		.loc 1 71 0 is_stmt 1
 238 00a0 0120     		movs	r0, #1
 239              	.LVL26:
 240              	.L7:
 241              		.loc 1 72 0
 242 00a2 03B0     		add	sp, sp, #12
 243              		.cfi_def_cfa_offset 12
 244              		@ sp needed
 245 00a4 70BC     		pop	{r4, r5, r6}
 246              		.cfi_restore 6
 247              		.cfi_restore 5
 248              		.cfi_restore 4
 249              		.cfi_def_cfa_offset 0
 250              	.LVL27:
 251 00a6 7047     		bx	lr
 252              	.L20:
 253              		.align	2
 254              	.L19:
ARM GAS  C:\Users\dr\AppData\Local\Temp\ccxTIbEU.s 			page 7


 255 00a8 00000000 		.word	hamWordCheck
 256 00ac 00000000 		.word	i
 257 00b0 00000000 		.word	.LANCHOR0
 258              		.cfi_endproc
 259              	.LFE64:
 260              		.size	decodeHamming, .-decodeHamming
 261              		.section	.text.ISR_HEADER_READ_h,"ax",%progbits
 262              		.align	2
 263              		.global	ISR_HEADER_READ_h
 264              		.thumb
 265              		.thumb_func
 266              		.type	ISR_HEADER_READ_h, %function
 267              	ISR_HEADER_READ_h:
 268              	.LFB65:
  73:rxsubsystem.c **** 
  74:rxsubsystem.c **** CY_ISR(ISR_HEADER_READ_h)
  75:rxsubsystem.c **** {
 269              		.loc 1 75 0
 270              		.cfi_startproc
 271              		@ args = 0, pretend = 0, frame = 0
 272              		@ frame_needed = 0, uses_anonymous_args = 0
 273 0000 08B5     		push	{r3, lr}
 274              		.cfi_def_cfa_offset 8
 275              		.cfi_offset 3, -8
 276              		.cfi_offset 14, -4
  76:rxsubsystem.c **** 	uint8 val = SREG_HEAD_Read();
 277              		.loc 1 76 0
 278 0002 FFF7FEFF 		bl	SREG_HEAD_Read
 279              	.LVL28:
  77:rxsubsystem.c **** 	if (headCnt == 0) { //src
 280              		.loc 1 77 0
 281 0006 0D4B     		ldr	r3, .L27
 282 0008 1B78     		ldrb	r3, [r3]	@ zero_extendqisi2
 283 000a 13B9     		cbnz	r3, .L22
  78:rxsubsystem.c **** 		
  79:rxsubsystem.c **** 		rxSrc = val;
 284              		.loc 1 79 0
 285 000c 0C4B     		ldr	r3, .L27+4
 286 000e 1870     		strb	r0, [r3]
 287 0010 11E0     		b	.L23
 288              	.L22:
  80:rxsubsystem.c **** 	}
  81:rxsubsystem.c **** 	else if (headCnt == 1) { //dst
 289              		.loc 1 81 0
 290 0012 012B     		cmp	r3, #1
 291 0014 06D1     		bne	.L24
  82:rxsubsystem.c **** 		
  83:rxsubsystem.c **** 		if (val == deviceAddress) {
 292              		.loc 1 83 0
 293 0016 0B4B     		ldr	r3, .L27+8
 294 0018 1B78     		ldrb	r3, [r3]	@ zero_extendqisi2
 295 001a 9842     		cmp	r0, r3
 296 001c 0BD1     		bne	.L23
  84:rxsubsystem.c **** 			
  85:rxsubsystem.c **** 			rxDst = val;
 297              		.loc 1 85 0
 298 001e 0A4B     		ldr	r3, .L27+12
ARM GAS  C:\Users\dr\AppData\Local\Temp\ccxTIbEU.s 			page 8


 299 0020 1870     		strb	r0, [r3]
 300 0022 08E0     		b	.L23
 301              	.L24:
  86:rxsubsystem.c **** 			// packet man
  87:rxsubsystem.c **** 		}
  88:rxsubsystem.c **** 	}
  89:rxsubsystem.c **** 	else if (headCnt == 2) {
 302              		.loc 1 89 0
 303 0024 022B     		cmp	r3, #2
 304 0026 02D1     		bne	.L25
  90:rxsubsystem.c **** 		
  91:rxsubsystem.c **** 		rxModLevel = val;
 305              		.loc 1 91 0
 306 0028 084B     		ldr	r3, .L27+16
 307 002a 1870     		strb	r0, [r3]
 308 002c 03E0     		b	.L23
 309              	.L25:
  92:rxsubsystem.c **** 	}
  93:rxsubsystem.c **** 	else if (headCnt == 3) {
 310              		.loc 1 93 0
 311 002e 032B     		cmp	r3, #3
 312 0030 01D1     		bne	.L23
  94:rxsubsystem.c **** 	
  95:rxsubsystem.c **** 		rxLength = val;
 313              		.loc 1 95 0
 314 0032 074B     		ldr	r3, .L27+20
 315 0034 1880     		strh	r0, [r3]	@ movhi
 316              	.L23:
  96:rxsubsystem.c **** 	}
  97:rxsubsystem.c **** 	
  98:rxsubsystem.c **** 	ISR_HEADER_READ_ClearPending();
 317              		.loc 1 98 0
 318 0036 FFF7FEFF 		bl	ISR_HEADER_READ_ClearPending
 319              	.LVL29:
 320 003a 08BD     		pop	{r3, pc}
 321              	.L28:
 322              		.align	2
 323              	.L27:
 324 003c 00000000 		.word	headCnt
 325 0040 00000000 		.word	rxSrc
 326 0044 00000000 		.word	deviceAddress
 327 0048 00000000 		.word	rxDst
 328 004c 00000000 		.word	rxModLevel
 329 0050 00000000 		.word	rxLength
 330              		.cfi_endproc
 331              	.LFE65:
 332              		.size	ISR_HEADER_READ_h, .-ISR_HEADER_READ_h
 333              		.comm	hamWordCheck,16,4
 334              		.comm	headCnt,1,1
 335              		.comm	rxDst,1,1
 336              		.comm	rxSrc,1,1
 337              		.comm	rxTrackSum,2,2
 338              		.comm	rxLength,2,2
 339              		.comm	rxModLevel,1,1
 340              		.comm	adcValue,2,2
 341              		.comm	sh_fifo,1,1
 342              		.comm	sh_load,1,1
ARM GAS  C:\Users\dr\AppData\Local\Temp\ccxTIbEU.s 			page 9


 343              		.comm	sh_test,1,1
 344              		.global	colValH
 345              		.global	H
 346              		.comm	packets4,65,4
 347              		.comm	DMA_PAY_TD,1,4
 348              		.comm	DMA_PAY_Chan,1,1
 349              		.comm	dimLevel,1,1
 350              		.comm	symCnt,1,1
 351              		.comm	symTx,31,4
 352              		.comm	lMask,1,1
 353              		.comm	symbolNext,1,1
 354              		.comm	trackSum,2,2
 355              		.comm	m32Track,32,4
 356              		.comm	m16Track,16,4
 357              		.comm	m8Track,8,4
 358              		.comm	m4Track,4,4
 359              		.comm	m2Track,2,4
 360              		.comm	m32,32,4
 361              		.comm	m16,16,4
 362              		.comm	m8,8,4
 363              		.comm	m4,4,4
 364              		.comm	m2,2,4
 365              		.comm	modLevel,1,1
 366              		.comm	FLAG_TX_DONE,1,1
 367              		.comm	FLAG_TX_EVENT,1,1
 368              		.comm	DMA_HAM2SER_TD,1,4
 369              		.comm	DMA_HAM2SER_Chan,1,1
 370              		.comm	routingTable,30,4
 371              		.comm	deviceAddress,1,1
 372              		.comm	deviceID,8,4
 373              		.comm	i2cWord,27,4
 374              		.comm	i2cRun,1,1
 375              		.comm	i2cData,1,1
 376              		.comm	i2cInstr,1,1
 377              		.comm	i2cAddr,1,1
 378              		.comm	i2cBuf,27,4
 379              		.comm	c,1,1
 380              		.comm	i2cSda,1,1
 381              		.comm	i2cClk,1,1
 382              		.comm	i2cStart,1,1
 383              		.comm	sum,4,4
 384              		.comm	signalMean,2,2
 385              		.comm	send15Cont,1,1
 386              		.comm	stepSize,1,1
 387              		.comm	uart_type,1,1
 388              		.comm	pre,1,1
 389              		.comm	del,1,1
 390              		.comm	buffer_uart,64,4
 391              		.comm	test16,2,2
 392              		.comm	test8,1,1
 393              		.comm	serialTest,2,4
 394              		.comm	levels_82,4,4
 395              		.comm	levels_15,4,4
 396              		.comm	levels_48,16,4
 397              		.comm	i,4,4
 398              		.comm	FLAG_SER_TX_INIT,1,1
 399              		.comm	FLAG_SER_EVENT,1,1
ARM GAS  C:\Users\dr\AppData\Local\Temp\ccxTIbEU.s 			page 10


 400              		.comm	bufferUart,64,4
 401              		.data
 402              		.align	2
 403              		.set	.LANCHOR0,. + 0
 404              		.type	H, %object
 405              		.size	H, 21
 406              	H:
 407 0000 01       		.byte	1
 408 0001 01       		.byte	1
 409 0002 01       		.byte	1
 410 0003 00       		.byte	0
 411 0004 01       		.byte	1
 412 0005 00       		.byte	0
 413 0006 00       		.byte	0
 414 0007 01       		.byte	1
 415 0008 01       		.byte	1
 416 0009 00       		.byte	0
 417 000a 01       		.byte	1
 418 000b 00       		.byte	0
 419 000c 01       		.byte	1
 420 000d 00       		.byte	0
 421 000e 01       		.byte	1
 422 000f 00       		.byte	0
 423 0010 01       		.byte	1
 424 0011 01       		.byte	1
 425 0012 00       		.byte	0
 426 0013 00       		.byte	0
 427 0014 01       		.byte	1
 428 0015 000000   		.space	3
 429              		.type	colValH, %object
 430              		.size	colValH, 7
 431              	colValH:
 432 0018 07       		.byte	7
 433 0019 06       		.byte	6
 434 001a 05       		.byte	5
 435 001b 03       		.byte	3
 436 001c 04       		.byte	4
 437 001d 02       		.byte	2
 438 001e 01       		.byte	1
 439              		.text
 440              	.Letext0:
 441              		.file 2 "c:\\program files (x86)\\cypress\\psoc creator\\4.1\\psoc creator\\import\\gnu\\arm\\5.4.
 442              		.file 3 "c:\\program files (x86)\\cypress\\psoc creator\\4.1\\psoc creator\\import\\gnu\\arm\\5.4.
 443              		.file 4 "Generated_Source\\PSoC5/cytypes.h"
 444              		.file 5 "dlm.h"
 445              		.file 6 "packetman.h"
 446              		.file 7 "Generated_Source\\PSoC5/core_cm3.h"
 447              		.file 8 "serial.h"
 448              		.file 9 "txsubsystem.h"
 449              		.file 10 "dimmingcontrol.h"
 450              		.file 11 "main.h"
 451              		.file 12 "rxsubsystem.h"
 452              		.file 13 "Generated_Source\\PSoC5/SREG_HEAD.h"
 453              		.file 14 "Generated_Source\\PSoC5/ISR_HEADER_READ.h"